Visa Rank	Employer	H1B LCA(2017-2019) (Denied, Withdrawn/Total)	Green Card LC(2017-2019)  (Denied, Withdrawn/Total)
1	1	Infosys Limited	35/53753	22/1930
2	2	Cognizant Technology Solutions U.S. Corporation	1151/44307	43/7216
3	3	Tata Consultancy Services Limited	214/40008	27/3027
4	5	Google Inc.	1065/22524	72/6482
5	6	IBM Corporation	4594/26872	87/745
6	7	Capgemini U.S. Llc	385/24866	36/1156
7	9	Microsoft Corporation	65/16598	142/5576
8	10	Tech Mahindra (Americas), Inc.	255/19188	25/449
9	12	Wipro Limited	288/16409	43/707
10	14	Hcl America, Inc.	59/11482	48/2065
11	16	Larsen & Toubro Infotech Limited	221/8663	22/790
12	19	Syntel Inc	124/6637	8/189
13	25	Salesforce.Com, Inc.	75/4075	26/1020
14	26	Compunnel Software Group, Inc.	46/4538	22/522
15	28	Hexaware Technologies, Inc.	44/4046	8/404
16	29	Oracle America, Inc.	45/2687	55/1729
17	33	Uber Technologies, Inc.	52/3211	6/877
18	35	Ust Global Inc.	103/3756	9/299
19	38	Mphasis Corporation	29/3224	13/664
20	39	Virtusa Corporation	162/3478	33/402
21	40	VM Ware Inc	42/3068	15/802
22	47	Mindtree Limited	20/2911	6/347
23	50	People Tech Group Inc.	176/2986	92/115
24	52	Synechron, Inc.	111/2768	6/186
25	54	Cerner Corporation	91/2426	1/463
26	55	Ntt Data, Inc.	63/2466	19/382
27	56	V-Soft Consulting Group, Inc	95/2653	30/116
28	60	Marlabs, Inc	1/2225	12/114
29	65	Fujitsu America, Inc.	82/1952	6/129
30	66	Htc Global Services, Inc.	15/1774	15/292
31	68	Intuit Inc.	123/1436	6/604
32	70	Citiustech Inc.	191/1970	2/55
33	72	Randstad Technologies, LLC	27/1776	4/241
34	80	Epam Systems, Inc	25/1147	32/790
35	82	Avco Consulting Inc	11/1775	6/149
36	84	Erp Analysts, Inc.	24/1665	0/173
37	85	Persistent Systems, Inc.	192/1755	1/82
38	87	Hcl Global Systems Inc	22/1593	13/222
39	88	Globallogic, Inc.	15/1550	3/217
40	90	Sap America, Inc.	14/1508	2/255
41	91	T-Mobile Usa, Inc.	18/1410	6/331
42	92	Expedia, Inc.	28/1368	1/343
43	93	Collaborate Solutions Inc	23/1635	4/39
44	94	Reliable Software Resources, Inc.	52/1473	3/195
45	95	The Mathworks, Inc.	6/1404	0/261
46	97	Cgi Technologies And Solutions Inc.	13/1367	7/268
47	98	First Tek, Inc.	75/1486	8/110
48	101	Natsoft Corporation	55/1287	4/226
49	105	System Soft Technologies Llc	75/1352	19/134
50	109	Slk America Inc	53/1434	2/27
51	111	3i Infotech, Inc.	38/1319	14/120
52	112	Juniper Networks, Inc.	8/1023	15/404
53	113	Emc Corporation	54/1100	11/312
54	116	Optum Services, Inc.	67/1188	2/206
55	117	Astir It Solutions Inc.	4/1309	6/59
56	118	Yash Technologies, Inc.	15/1255	1/96
57	123	Symantec Corporation	83/1127	7/207
58	126	Iris Software, Inc.	39/1199	5/110
59	131	Iblesoft Inc	21/1234	0/31
60	134	Adobe Systems Incorporated	25/901	11/334
61	136	Sapient Corporation	31/1041	0/174
62	137	Niit Technologies Limited	36/995	2/213
63	140	Hitachi Consulting Corporation	82/1047	7/117
64	145	Intone Networks Inc.	14/1000	8/131
65	150	Akamai Technologies, Inc.	58/917	13/175
66	152	Twitter, Inc.	38/888	18/198
67	153	Servicenow, Inc.	13/807	1/269
68	154	Infoshare Systems, Inc.	101/1036	10/36
69	156	Diversant Llc	45/902	8/163
70	157	Systems Technology Group, Inc.	19/945	0/114
71	160	Synopsys, Inc.	25/635	13/421
72	167	Technosoft Corporation	23/895	1/124
73	167	Sap Labs, Llc	7/875	4/144
74	167	Nisum Technologies Inc.	19/882	1/137
75	172	Verizon Data Services Llc	7/1001	0/1
76	177	Pyramid Technology Solutions, Inc.	16/949	3/40
77	178	Srs Consulting Inc.	12/847	0/140
78	184	Pioneer Consulting Services Llc	9/916	0/32
79	188	Altimetrik Corp	30/873	4/67
80	191	Palo Alto Networks, Inc.	11/749	1/183
81	194	Netapp, Inc.	53/781	4/141
82	195	Collabera Inc.,	16/876	1/44
83	198	Snap, Inc	8/651	0/260
84	199	Csc Covansys Corporation	25/808	6/101
85	200	Rjt Compuquest, Inc.	25/846	8/62
86	201	Cyberthink Inc	13/810	2/93
87	202	Idexcel, Inc.	94/865	0/35
88	203	Autodesk, Inc.	17/730	4/169
89	205	At&T Services, Inc.	18/772	2/121
90	206	Eclinicalworks, Llc	14/781	0/109
91	207	Intraedge, Inc.	14/752	13/137
92	210	Diaspark, Inc.	33/838	0/28
93	221	Strategic Resources International, Inc.	22/793	5/57
94	222	Nagarro, Inc.	3/791	2/57
95	229	Epitec, Inc.	24/706	0/112
96	238	Citrix Systems, Inc.	50/568	15/234
97	243	Birlasoft Inc	22/686	3/109
98	250	Perficient, Inc.	7/705	8/73
99	252	Information Control Corporation	23/664	2/108
100	257	Computer Sciences Corporation	25/735	1/23
101	259	Tavant Technologies, Inc.	25/689	1/61
102	261	Softpath System, Llc	36/706	1/38
103	261	Data, Inc.	8/659	4/85
104	263	Logic Planet Inc	9/678	1/64
105	267	Zensar Technologies Inc.	27/620	0/109
106	271	Miracle Software Sysytems Inc	8/609	0/112
107	271	Ipolarity Llc	27/688	7/33
108	273	Jnit Technologies	27/653	8/66
109	277	Exilant Technologies Private Limited	146/650	17/67
110	282	Amdocs Inc.	14/580	5/134
111	282	Infinite Computer Solutions	11/692	0/22
112	282	Tibco Software Inc.	53/607	11/107
113	290	Cnet Global Solutions, Inc	13/657	1/51
114	290	Factset Research Systems, Inc.	14/570	14/138
115	290	Itech Us, Inc.	16/598	22/110
116	294	Itc Infotech (Usa), Inc.	37/659	0/47
117	296	Cyma Systems Inc	42/647	4/55
118	303	Fusion Plus Solutions, Inc	2/564	30/129
119	306	Amensys, Inc.	15/673	0/16
120	319	Workday, Inc.	7/456	1/215
121	324	Dotcom Team, Llc	7/614	3/50
122	325	Avani Technology Solutions Inc.	14/593	6/69
123	327	Valuemomentum, Inc.	12/585	0/73
124	327	Egen Solutions, Inc.	60/629	0/29
125	330	Siri Infosolutions Inc.	9/563	5/94
126	331	Nemo It Solutions, Inc	1/593	0/62
127	333	Ness Usa, Inc.	31/545	7/107
128	338	Usm Business Systems, Inc	39/605	4/44
129	345	Gss Infotech Ct, Inc.	9/608	2/34
130	346	Teradata Operations, Inc.	18/591	1/48
131	348	Kyyba Inc.	22/590	1/48
132	354	Samsung Information Systems America, Inc.	11/501	2/132
133	370	California Creative Solutions, Inc.	27/553	2/60
134	372	Aspire Systems, Inc.	28/571	1/41
135	374	It America Inc	17/527	2/77
136	375	Innovative Intelligent Solutions Llc	42/570	0/31
137	378	Quality Matrix Inc	27/559	7/39
138	386	Infogain Corporation	19/491	1/102
139	387	Coolsoft, Llc	46/511	5/77
140	388	Ciber, Inc.	10/520	7/64
141	388	Swanktek Inc	18/489	4/95
142	393	Alpha Net Consulting Llc	27/551	3/31
143	393	Everest Consulting Group, Inc	10/520	3/62
144	398	Tanisha Systems Inc	26/546	1/30
145	400	Kpit Infosystems, Inc.	23/433	16/142
146	401	Fast Switch Ltd	34/539	2/35
147	405	Pamten, Inc.	40/505	3/65
148	406	Microstrategy Incorporated	35/449	23/120
149	412	Techno-Comp Inc	19/509	0/55
150	414	Lead It Corporation	31/539	3/23
151	415	Pure Storage, Inc.	3/451	0/110
152	419	Sage It, Inc.	6/527	1/30
153	421	Bitwise Inc	2/496	2/57
154	427	Nic Info Tek, Inc.	19/466	7/80
155	430	Revereit Llc	21/522	5/19
156	431	Impetus Technologies, Inc.	23/504	2/36
157	435	Etek It Services, Inc.	25/518	0/21
158	435	Dropbox, Inc.	37/441	3/98
159	438	Orpine, Inc.	15/492	3/46
160	442	Splunk, Inc	6/454	0/77
161	443	Xavient Information Systems, Inc.	21/486	1/43
162	446	Ca, Inc.	4/462	0/66
163	450	Agreeya Solutions, Inc.	12/468	0/54
164	451	Denken Solutions, Inc.	75/496	2/25
165	458	Client Network Services, Inc.	12/441	7/75
166	459	Square, Inc.	4/430	0/85
167	460	Vista Applied Solutions Group Inc	4/455	1/57
168	460	Etouch Systems Corporation	12/461	5/51
169	468	Charter Global, Inc.	16/477	0/29
170	472	Smart Works, Llc	17/480	0/23
171	477	Oracle Financial Services Software, Inc.	17/439	1/60
172	482	Connvertex Technologies Inc.	19/475	6/19
173	486	Dgn Technologies Inc	26/403	62/90
174	491	Savi Technologies, Inc	33/475	0/14
175	492	Electronic Arts, Inc.	22/370	10/118
176	497	Sagarsoft, Inc	16/465	3/21
177	498	Piorion Solutions, Inc.	11/424	4/61
178	500	Galaxe.Solutions, Inc	11/431	3/53
179	507	Proficient Business Systems, Inc.	6/441	1/39
180	509	Arista Networks, Inc.	20/374	0/105
181	510	Baha Industries Corp.	32/425	1/53
182	517	Techdemocracy Llc	12/440	10/34
183	519	Guidewire Software, Inc.	12/352	3/121
184	520	Iconsoft Inc.	8/423	1/48
185	520	Vyzer Solutions Inc	3/459	0/12
186	525	Northstar Group Inc	1/436	3/32
187	525	Friendly Consultants, Inc.	52/451	2/17
188	528	Lancesoft, Inc.	15/435	0/32
189	536	Artech Information Systems Llc	13/432	0/25
190	537	United Software Group Inc.	9/422	0/34
191	542	Samsung Semiconductor, Inc.	4/370	4/82
192	544	Siemens Plm Software Inc.	18/394	4/56
193	544	International Software Systems Inc	0/427	0/23
194	544	Siritek Inc	13/422	3/28
195	544	Sriven Systems, Inc.	28/406	2/44
196	544	Paramount Software Solutions	15/393	0/57
197	550	Lhp Software, Llc	8/407	6/42
198	552	Aim Big, Inc.	35/408	1/40
199	554	Sunera Technologies, Inc	11/423	0/24
200	555	Yash & Lujan Consulting, Inc.	0/410	0/34
201	559	Dizer Corp	20/393	2/49
202	559	Vintech Solutions Inc	0/438	0/4
203	565	Infobiz Systems Llc	2/436	1/4
204	566	Adroit Associates, Inc.	17/420	0/19
205	569	Visionet Systems, Inc.	11/400	4/36
206	569	Vastika, Inc.	8/345	6/91
207	576	Ncr Corporation	18/368	4/67
208	577	Pyramid Consulting, Inc.	14/392	3/42
209	579	Antra Inc	0/416	1/16
210	580	Indotronix International Corporation	16/396	1/35
211	581	Ansys, Inc.	7/377	3/52
212	582	Aricent Technologies (Holdings) Limited	18/396	3/32
213	582	Yelp Inc.	1/315	1/113
214	586	Utis, Inc.	5/418	0/9
215	590	Ramps International, Inc	1/366	1/59
216	590	Kastech Solutions Llc	9/365	1/60
217	592	Saama Technologies, Inc.	30/388	1/36
218	594	Millennium Software, Inc.	36/378	1/45
219	595	New York Technology Partners, Inc.	19/374	3/48
220	595	Comtec Consultants, Inc.	4/378	4/44
221	598	Verizon Communications Inc., & All Its Subsidiaries & Affiliates	1/57	5/364
222	598	Sapphire Software Solutions Inc	10/360	10/61
223	598	Fortinet, Inc.	1/293	6/128
224	608	Infolob Solutions, Inc.	8/379	1/38
225	611	Pvr Technologies Inc.	61/382	0/34
226	611	Tabner, Inc.	3/387	2/29
227	614	Premier It Solutions, Inc	1/386	0/29
228	614	Anjaneyap, Inc.	21/380	2/35
229	617	Hortonworks, Inc	19/314	3/100
230	621	Techaspect Solutions, Inc.	11/395	2/18
231	621	Ncs Pearson, Inc.	17/330	7/83
232	623	Akvarr Inc	5/369	41/43
233	626	Quantum Integrators Group, Llc	3/381	2/30
234	629	Manhattan Associates, Inc.	4/246	3/162
235	631	Synerzy Software Solutions Inc	5/391	2/16
236	636	Kronsys, Inc.	12/379	0/24
237	639	Apps Associates, Llc	12/369	1/33
238	642	Camelot Integrated Solutions Inc	6/357	2/42
239	647	Delta System & Software, Inc	8/376	2/22
240	653	Ellie Mae, Inc.	3/318	2/78
241	656	Inspirage Llc	17/374	1/21
242	656	Scepter Technologies Inc	5/359	2/36
243	659	Infomatics Corp	8/357	6/35
244	661	Mentor Graphics Corporation	14/315	3/76
245	665	Katalyst Technologies, Inc.	6/366	0/23
246	665	Anira Solutions Inc	17/376	6/13
247	671	Sagitec Solutions Llc	9/302	1/84
248	671	Horizon International Trd. Inc	6/357	1/29
249	674	Rackspace Us, Inc.	20/292	5/93
250	674	Riverbed Technology, Inc.	18/286	6/99
251	676	Infostretch Corporation	18/341	0/42
252	678	Baanyan Software Services, Inc	18/365	0/17
253	683	Sbp Consulting Inc.	5/346	3/33
254	683	Global Infotech Inc	14/339	35/40
255	686	Oslo Solutions Llc	11/362	2/16
256	690	Unicorn Technologies, Llc	8/362	1/14
257	693	Infomerica, Inc.	13/323	2/52
258	703	Techpillars, Inc.	8/341	2/31
259	703	Mindlance, Inc.	4/342	4/30
260	705	I-Link Solutions Inc.	10/318	0/52
261	705	Smartsoft International, Inc.	16/339	3/31
262	705	Apex Technology Systems, Inc	13/327	14/43
263	710	Webilent Technology Inc	7/307	9/62
264	710	Atlassian, Inc.	6/324	1/45
265	714	Bally Gaming, Inc.	9/324	4/43
266	718	Marvel Technologies, Inc.	13/349	3/17
267	718	Delasoft, Inc.	7/342	0/24
268	723	Microexcel, Inc	7/327	6/38
269	723	Twilio, Inc.	3/309	3/56
270	737	Epic Systems Corporation	3/164	14/197
271	737	Frontier Technologies, Llc	41/332	1/29
272	741	Bell Info Solutions, Llc	12/314	2/46
273	741	Pantar Solutions Inc	14/331	2/29
274	741	Ptc Inc.	14/302	1/58
275	744	Maxima Consulting, Inc.	3/303	0/56
276	747	3s Business Corporation	1/320	7/38
277	752	Sysintelli, Inc	18/333	2/24
278	752	Namitus Technologies Inc.	6/345	0/12
279	752	Concur Technologies, Inc.	2/290	0/67
280	752	Vsquare Infotech Inc.	6/301	4/56
281	757	Blizzard Entertainment, Inc.	6/269	2/87
282	757	Sourceinfotech Inc.	2/332	1/24
283	759	Vensoft Llc	14/318	1/37
284	767	Tableau Software, Inc.	3/283	0/69
285	776	Interactive Communications International, Inc.	7/292	2/58
286	780	Tripadvisor Llc	5/304	0/45
287	784	American Unit, Inc	9/314	3/33
288	784	Lucid Technologies, Inc	7/323	3/24
289	788	Palvai Global Services Inc	7/336	1/10
290	794	Gartner Inc.	5/311	0/33
291	794	Softova, Inc.	10/330	0/14
292	794	Cybage Software Inc	24/325	0/19
293	799	C-Vision, Inc.	21/294	1/49
294	799	Niteosoft Inc	7/333	0/10
295	809	Successfactors, Inc.	3/286	0/55
296	809	Centraprise, Corp	25/304	9/37
297	816	Conch Technologies, Inc.	1/320	1/18
298	819	Akvelon, Inc.	115/303	1/33
299	822	Esystems, Inc.	16/314	1/21
300	825	Isite Technologies Inc	12/313	3/21
301	825	Sapvix Inc	40/274	38/60
302	825	Softcom Systems Inc.	5/306	1/28
303	828	Yashco Systems, Inc.	13/277	8/56
304	828	Allied Informatics, Inc	4/310	0/23
305	831	Detroit Engineered Products, Inc.	11/298	1/34
306	831	Cloudera, Inc.	2/226	4/106
307	839	Kairos Technologies, Inc.	7/312	0/19
308	841	Sree Infotech Llc	9/303	1/27
309	846	Equinox It Solutions, Llc	33/321	2/8
310	851	A9.Com, Inc.	8/222	2/105
311	853	Okta, Inc.	13/270	3/56
312	856	Pandora Media, Inc.	5/237	5/88
313	860	Enterprise It Resources, Inc	6/303	2/21
314	860	Jade Global Inc.	19/299	0/25
315	863	Adaequare Inc	3/314	0/9
316	871	Citigroup Technology, Inc.	7/267	0/54
317	871	Silicon Staff It Services, Inc.	23/290	6/31
318	871	It Cats, Llc	11/281	8/40
319	878	Riot Games, Inc.	16/250	0/70
320	878	Reliance Global Services Inc.	5/308	1/12
321	881	Hadiamondstar Software Solutions, Llc.	1/279	4/40
322	881	Virtue Group, Llc	26/289	1/30
323	885	Imcs Group Inc	7/310	0/8
324	885	Virtual Matrix Corporation	3/314	0/4
325	894	Hallmark Global Technologies Inc	5/288	0/28
326	894	Srnl International Inc	5/305	2/11
327	897	Infisystems, Llc	5/315	-
328	897	Satin Solutions Llc	43/288	3/27
329	897	Intellect Business Solutions, Llc	30/296	0/19
330	900	Only It Consulting, Llc	6/293	6/21
331	902	Itelligence, Inc.	10/311	1/2
332	904	Flexera Global, Inc.	12/279	0/33
333	914	Vigna Solutions, Inc.	11/276	5/33
334	915	Amadeus North America, Inc.	3/220	1/88
335	920	Eateam, Inc.	5/297	0/10
336	923	Softpath Technologies Llc	7/283	2/23
337	923	Business Intelli Solutions, Inc.	6/270	2/36
338	925	Smart Source Technologies, Inc.	5/276	2/29
339	929	Everest Computers Inc.	1/282	3/22
340	935	Cellco Partnership	9/299	0/4
341	935	Spln International Llc	6/302	1/1
342	935	Summitworks Technologies Inc	9/268	4/35
343	943	Data Systems Integration Group Inc.	1/258	0/44
344	943	Fireeye, Inc.	13/249	1/53
345	943	Promatrix Corp	29/271	1/31
346	949	Openwave Computing Llc	10/273	0/28
347	952	Advent Global Solutions Inc.	5/282	2/18
348	952	Savvy Info Systems Inc	3/263	34/37
349	952	Schrill Technologies Inc.	10/276	0/24
350	961	Dataserv Inc	2/268	1/30
351	961	Apttus Corporation	33/242	2/56
352	964	Softnice, Inc.	3/266	0/31
353	969	Rite Pros Inc	10/281	0/14
354	972	Resource Logistics, Inc.	11/247	5/47
355	972	Galax-Esystems Corporation	17/249	7/45
356	978	Infocepts, Llc	11/268	0/25
357	985	Cavium, Inc.	13/244	2/47
358	992	Red Hat, Inc.	4/252	3/38
359	992	Aqua Information Systems, Inc.	1/287	0/3
360	992	Sgs Technologie, Llc	12/244	2/46
361	996	Ispace, Inc	8/265	0/24
362	996	Openlogix Corporation	11/252	3/37
363	996	Gcom Software, Inc.	3/240	2/49
364	1000	Svk Systems Inc	16/267	1/21
365	1002	Mouri Tech Llc	25/273	0/14
366	1002	Realsoft Technologies, Llc	18/268	1/19
367	1008	Info Services Llc	19/255	2/31
368	1008	Redeemsoft, Llc	38/278	1/8
369	1014	Nicira, Inc.	10/205	0/80
370	1014	Sysfore Technologies, Inc.	13/264	0/21
371	1019	Dataformix Technologies Inc	26/267	2/17
372	1019	Asta Crs, Inc.	11/261	5/23
373	1024	Indus Valley Consultants, Inc.	0/270	0/13
374	1024	Prelude Systems Inc.	10/252	4/31
375	1024	International Technology Solutions, Inc. Columbia, SC	15/263	1/20
376	1029	Unify Solutions, Inc.	8/254	0/28
377	1034	Remote Tiger, Inc.	31/269	0/12
378	1040	Infosmart Technologies, Inc	8/266	1/14
379	1040	Vigilant Technologies Llc	32/256	0/24
380	1047	Globalpoint, Inc.	17/254	0/24
381	1047	Anjus Llc	5/230	0/48
382	1052	It Division, Inc.	17/266	0/10
383	1055	Sas Institute Inc.	6/228	0/47
384	1055	Trianz Consulting Inc.	1/240	1/35
385	1067	Box, Inc.	8/193	3/80
386	1067	Fpt Usa Corp.	3/257	1/16
387	1067	Param Consulting Services, Inc	2/261	1/12
388	1067	Deemsys Inc	5/228	6/45
389	1074	Akshaya Inc	7/196	47/76
390	1077	Verinon Technology Solutions Ltd.	3/255	6/16
391	1077	Nomura America Services, Llc	8/230	5/41
392	1077	Trisync Technologies, Inc.	6/270	0/1
393	1077	Trans American Information Systems Inc	2/244	0/27
394	1085	Hexacorp Llc	2/260	1/10
395	1085	Edifecs, Inc.	17/247	0/23
396	1085	Elan Technologies, Inc.	20/252	1/18
397	1085	Svam International Inc.	15/229	2/41
398	1085	Infotech Prism Llc	12/259	2/11
399	1091	Saxon Global, Inc.	6/263	0/6
400	1095	Ipivot, Llc	2/244	1/24
401	1095	Logistic Solutions, Inc.	4/253	0/15
402	1095	Sri Tech Solutions Inc	8/253	0/15
403	1101	Onward Technologies, Inc	5/243	1/23
404	1101	Softhq	13/244	5/22
405	1108	Saipsit, Inc.	9/221	0/44
406	1115	Maruthi Technologies LLC (DBA: Anblicks)	4/255	0/9
407	1117	Skoruz Technologies, Inc	3/250	1/13
408	1117	Sapot Systems, Inc.	0/248	0/15
409	1117	Innocore Solutions, Inc	8/243	1/20
410	1117	Mansai, Inc	6/243	1/20
411	1117	Bdsn International Inc	0/257	0/6
412	1122	Palantir Technologies Inc.	22/196	4/66
413	1122	Spartan Solutions Inc	11/238	1/24
414	1122	Advanced Technology Group Usa, Inc.	8/242	3/20
415	1122	Mcafee, Inc.	13/248	0/14
416	1122	Talent It Services, Inc.	2/232	0/30
417	1122	National Instruments Corporation	4/190	9/72
418	1133	Equinix, Inc.	2/231	0/30
419	1139	Choice Hotels International Services Corp	10/197	0/63
420	1147	Infodat International, Inc.	7/225	6/33
421	1147	Jda Software, Inc.	19/239	0/19
422	1147	Nixsol, Inc	6/240	6/18
423	1155	Enterprise Software Solutions Inc.	1/252	3/5
424	1155	Rei Systems Inc.	13/227	1/30
425	1155	Virgo Inc	8/236	1/21
426	1161	Nartal Systems Inc	8/244	0/12
427	1161	Staid Logic Llc	5/241	1/15
428	1161	Spruce Technology Inc.	9/230	2/26
429	1167	Bhrigus, Inc.	4/246	0/9
430	1172	Innominds Software, Inc.	5/250	0/4
431	1172	Kaizen Technologies Inc.	4/236	0/18
432	1172	Synergy Technologies, Llc.	1/208	1/46
433	1172	Vlink, Inc.	23/214	9/40
434	1172	Performance Resources Ny Inc	3/226	2/28
435	1172	It Trailblazers, Llc	13/220	1/34
436	1185	Hermitage Infotech, Llc	12/231	2/22
437	1185	Sena Info Technologies, Inc.	10/233	0/20
438	1185	Imetris Corporation	38/236	0/17
439	1185	Cerebral Technologies, Inc.	10/236	2/17
440	1185	Venturesoft Global Inc	5/203	29/50
441	1193	Indsoft, Inc.	23/236	1/16
442	1193	Geeksoft, Llc	22/236	1/16
443	1193	Servesys Corporation	10/213	10/39
444	1203	Advansoft International Inc	14/236	1/15
445	1206	Resource Informatics Group, Inc	9/234	1/16
446	1212	Gssr Inc	8/219	3/30
447	1217	Sparta Consulting Inc.	13/224	7/24
448	1217	Ecom Consulting Inc	11/227	3/21
449	1217	Thoughtworks, Inc.	18/208	3/40
450	1217	Proofpoint, Inc.	5/175	4/73
451	1223	Tanvi It Solutions Inc	4/216	1/31
452	1223	Fidelis Software Solutions LLC	14/240	0/7
453	1223	Isync Solutions Inc	11/226	2/21
454	1223	Ziontech Solutions, Inc.	2/233	1/14
455	1223	Navitas Business Consulting, Inc.	20/221	5/26
456	1223	Atos It Solutions And Services, Inc.	9/246	0/1
457	1233	Andhus Technologies Inc	0/229	0/17
458	1233	Intelliswift Software, Inc.	1/226	0/20
459	1233	Sogeti Usa, Llc	7/207	3/39
460	1240	Spirent Communications, Inc.	8/183	0/62
461	1240	Numbers Only, Inc.	2/205	0/40
462	1243	Neotech Solutions, Inc.	17/226	3/18
463	1243	Concepts Information Technology, Inc	11/218	2/26
464	1243	Apps Solutions Inc	3/214	0/30
465	1243	Ariston Tek Inc	11/219	2/25
466	1250	Renee Systems, Inc	7/235	0/8
467	1253	Neumeric Technologies Corporation	4/223	2/19
468	1260	Airysoft, Inc	0/233	2/7
469	1270	Oberon It Inc	2/231	0/7
470	1283	Ebix Inc	3/212	1/24
471	1283	It Spin Inc	3/221	6/15
472	1283	Eureka Infotech, Inc	1/227	1/9
473	1286	Cloudray, Inc.	6/221	1/14
474	1286	Sun Soft Technologies, Inc.	15/230	0/5
475	1286	Ameritech Global Inc.	3/220	2/15
476	1293	Sterling 5, Inc.	11/222	1/12
477	1293	Avant Systems, Inc.	7/218	2/16
478	1293	Datawin Systems Inc	3/231	0/3
479	1293	Symbioun Technologies, Inc	17/213	1/21
480	1300	Horizonsoftsolutions, Inc	2/211	1/22
481	1300	Whatsapp Inc.	3/170	1/63
482	1313	Gomiapp, Llc	1/222	1/9
483	1313	Jrd Systems, Inc.	3/223	0/8
484	1313	Swift Solutions Inc	29/213	1/18
485	1320	M3bi, Llc	5/205	4/25
486	1320	Essential Technologies, Inc.,	12/219	0/11
487	1320	It & Ebusiness Consulting Services Inc.	10/215	1/15
488	1329	R3 Technology, Inc	22/209	0/20
489	1335	Seven Seas Technologies, Inc.	10/203	5/25
490	1335	Tetrasoft, Inc.	25/203	1/25
491	1342	Ez2 Technologies, Inc.	8/200	0/27
492	1342	Orchestra Technology, Inc.	12/209	2/18
493	1342	Istream Solutions, Inc.	18/186	2/41
494	1342	Machine Zone, Inc.	2/176	3/51
495	1348	Quinnox, Inc.	8/208	0/18
496	1348	Zylog Systems Limited	9/195	8/31
497	1353	Hrk Solutions Llc	6/219	1/6
498	1357	Prodapt North America	2/209	0/15
499	1357	Cogent Infotech Corporation	1/210	0/14
500	1357	Systime Computer Corporation	7/199	2/25
501	1362	Vst Consulting Inc	8/204	2/19
502	1366	Primesoft, Inc	7/213	0/9
503	1366	American It Solutions, Inc	3/217	1/5
504	1373	Roku, Inc.	1/164	2/57
505	1373	R Systems Inc.	3/204	1/17
506	1379	Bioinfo Systems Llc	18/213	2/7
507	1385	Zebra Technologies Corporation	7/185	2/34
508	1385	Alltech Consulting Services Inc	16/187	4/32
509	1385	Kolla Soft Inc	7/173	9/46
510	1385	Arkstek, Inc.	40/204	0/15
511	1392	E-Business International Inc	3/195	2/23
512	1395	Empower Professionals	6/188	0/29
513	1395	Jean Martin Inc	1/202	0/15
514	1404	Indus Group, Inc.	5/204	2/12
515	1404	Amerisoftpro Systems Llc	1/212	0/4
516	1404	Vaktech Corporation Llc	0/196	1/20
517	1408	Vitech Systems Group, Inc.	8/179	0/36
518	1416	Enternet Business Systems, Inc	3/205	1/9
519	1416	Satya Marg Solutions Inc	17/196	5/18
520	1416	Software Guidance & Assistance, Inc.	20/193	0/21
521	1416	Ait Global, Inc	7/189	1/25
522	1416	Daz Systems, Inc.	11/204	0/10
523	1416	Greenbyte Technologies, Llc	15/193	0/21
524	1416	Innovative Consulting Solutions, Llc	3/192	0/22
525	1432	Ilink Systems, Inc.	3/177	0/36
526	1432	Saicon Consultants, Inc.	3/198	0/15
527	1432	Techwave Consulting Inc	5/190	9/23
528	1441	O2 Technologies Inc.	9/185	2/27
529	1441	Rapidit Inc.	8/201	1/11
530	1441	Btree Solutions Inc	40/206	1/6
531	1441	Global Bridge Infotech Inc,.	11/197	0/15
532	1441	Qualys, Inc.	0/166	2/46
533	1441	W/H/I/P Systems, Llc D/B/A Aroghia Group, Llc	2/194	1/18
534	1455	M & R Consultants Corp	3/191	0/20
535	1455	Oasys Technologies Inc	12/200	1/11
536	1455	American Business Solutions, Inc.	1/184	1/27
537	1472	Precision Technologies Corp.	31/193	2/17
538	1472	Thoughtwave Software And Solutions Inc	6/184	3/26
539	1479	Chelsoft Solutions Co.	0/186	2/23
540	1479	Acxiom Corporation	16/170	4/39
541	1479	Prowise Solutions, Inc.	4/200	0/9
542	1490	Pace Computer Solutions Inc	20/195	2/13
543	1490	C2s Technologies Inc	6/192	6/16
544	1490	Zillion Technologies Inc.	17/185	0/23
545	1490	Amzur Technologies, Inc	22/208	-
546	1490	S&R Professionals L.P	4/194	0/14
547	1502	Rang Technologies, Inc.	20/202	0/5
548	1502	Highpoint Solutions, Llc	3/184	0/23
549	1508	Itcaps Llc	18/182	1/24
550	1513	Sbase Technologies Inc	5/181	1/24
551	1513	Meridiansoft, Inc.	6/183	0/22
552	1521	Data-Core Systems, Inc	4/193	0/11
553	1521	Webject Systems, Inc.	7/189	0/15
554	1532	Reflexis Systems, Inc.	5/169	1/34
555	1532	Exzac Inc	7/148	2/55
556	1532	Cyg Tec, Inc.	6/191	0/12
557	1532	Tts Solutions Inc.	10/191	0/12
558	1545	American Information Technology Corporation	9/186	1/16
559	1551	E-Base Technologies Inc	3/195	1/6
560	1551	Epace Technologies Inc.	11/178	3/23
561	1551	Prospance, Inc.	17/191	0/10
562	1551	Windycity Technologies Inc	1/194	2/7
563	1551	Kalven Technologies Inc	2/180	2/21
564	1559	Techstar Consulting Inc	16/182	1/18
565	1559	Igt Solutions, Inc.	4/171	0/29
566	1565	Harmonia Holdings Group Llc	5/172	0/27
567	1565	Iconma, Llc	1/184	0/15
568	1565	Intellisoft Technologies, Inc.	10/181	1/18
569	1573	Veritis Group, Inc.	7/173	1/25
570	1573	Global Information Technology, Inc.,	5/167	1/31
571	1573	Sarayu Consultants Inc	1/179	0/19
572	1573	Corporate Computer Services Inc	5/186	1/12
573	1573	Prosper Marketplace, Inc.	10/169	0/29
574	1584	Liquidhub, Inc.	1/157	0/40
575	1584	Allied Business Consulting, Inc.	5/183	1/14
576	1590	Sunmerge Systems Inc.	0/180	2/16
577	1590	Gavs Technologies	2/191	0/5
578	1590	Infowave Systems, Inc	8/179	0/17
579	1590	Compusoft Integrated Solutions, Inc.	10/174	3/22
580	1590	Visual Bi Solutions Inc	24/172	2/24
581	1598	Aptude, Inc.	11/178	0/17
582	1598	Nihaki Systems Inc	7/180	0/15
583	1598	Gallega Software Solutions Inc	1/185	0/10
584	1606	Infoyuga Technologies, Inc.	3/194	-
585	1606	Information Resources, Inc.	1/171	0/23
586	1616	Nbcuniversal Media, Llc	4/170	0/23
587	1616	Cvent, Inc.	7/169	1/24
588	1616	Model N, Inc.	14/169	1/24
589	1622	Decipher Software Solutions	1/178	0/14
590	1622	Cavalier It Inc.	4/182	0/10
591	1622	Shinewell Technologies Inc.	11/178	1/14
592	1629	Abal Technologies, Inc	7/174	0/17
593	1629	Advantage It Inc	9/180	1/11
594	1629	Systel Inc Of Delaware	2/184	0/7
595	1629	Zendesk, Inc.	3/143	0/48
596	1629	It People Corporation	5/178	0/13
597	1640	Saras America Inc.	3/183	1/7
598	1640	Strategic Staffing Solutions, L.C.	10/190	-
599	1640	Ved Software Services Inc	2/179	0/11
600	1650	Open Text, Inc.	8/166	0/23
601	1650	Macrosoft, Inc.	2/167	0/22
602	1650	Genome International Corporation	14/183	0/6
603	1660	Appdynamics, Inc.	120/164	0/24
604	1660	Pinnacle Technical Resources, Inc.	3/168	2/20
605	1660	Sqa Concepts Inc	4/161	1/27
606	1660	V.L.S Systems, Inc	2/182	0/6
607	1660	It Keysource, Inc.	3/176	1/12
608	1669	Aci Infotech Inc.	10/172	1/15
609	1669	West Corporation	11/149	2/38
610	1669	Hudson Data Llc	8/173	0/14
611	1669	Binary Computer Int'L Corp	14/187	-
612	1669	Propelsys Technologies Llc	7/162	4/25
613	1684	Tekwissen Llc	4/170	2/16
614	1684	Silverxis Inc	1/177	0/9
615	1684	Ka-Sapsolutions Inc	11/180	1/6
616	1684	Comprehensive Resources, Inc.	13/182	0/4
617	1684	First Object Inc	0/180	0/6
618	1694	Humetis Technologies, Inc.	3/177	1/8
619	1694	Bahwan Cybertek Inc.	5/163	0/22
620	1694	Infinity Tech Group Inc.	9/170	1/15
621	1694	Sunray Enterprise, Inc.	13/177	0/8
622	1694	Isr Info Way, Inc.	3/162	1/23
623	1694	Activision Publishing, Inc.	3/139	0/46
624	1708	Idhasoft, Inc.	12/182	0/2
625	1708	Ar Systems, Inc	2/182	1/2
626	1724	Technomax, Llc	4/154	0/29
627	1724	A10 Networks, Inc.	3/138	0/45
628	1732	Object Technology Solutions Inc	7/161	7/21
629	1732	Arcus Technologies	3/172	0/10
630	1732	Amiti Consulting, Inc	1/173	0/9
631	1732	Infologitech Inc	11/171	0/11
632	1732	Synergy Global Technologies Inc.	10/166	2/16
633	1742	Mitchell International Inc.	5/145	1/36
634	1742	Infoville Inc.	7/161	1/20
635	1742	Luxoft Usa Inc	3/49	6/132
636	1752	Palayekar Companies, Inc	6/168	0/12
637	1752	Saturn Tech Llc	4/150	3/30
638	1759	Alindus, Inc.	12/174	0/5
639	1759	Xceltech, Inc	14/162	6/17
640	1767	Data Solutions, Inc.	10/154	0/24
641	1767	Aspen Technology, Inc.	9/155	2/23
642	1767	Csc Holdings, Llc	4/156	2/22
643	1777	Hitachi Data Systems Corporation	3/105	4/72
644	1777	Mobileiron, Inc.	4/139	4/38
645	1777	Nam Technologies, Inc.	6/147	0/30
646	1785	Network Objects, Inc.	3/153	1/23
647	1790	Saven Technologies, Inc	12/155	1/20
648	1790	R2 Technologies Llc	18/168	1/7
649	1801	Incandescent Technologies, Inc.	7/145	5/29
650	1801	Allscripts Healthcare, Llc	2/132	0/42
651	1801	Eminent Software Services	8/143	1/31
652	1801	Nextgen Technologies Inc.	4/160	0/14
653	1801	Softcorp International, Inc.	2/149	2/25
654	1815	Jsmn International Inc	6/128	13/45
655	1815	Byteware Inc	13/160	1/13
656	1815	Img Systems Inc	8/155	0/18
657	1827	Centaurus Technology Partners, Llc	1/152	0/20
658	1827	Aptiva Corp	6/156	2/16
659	1827	Dynamic Software Consultants, Inc	6/168	0/4
660	1839	Dice It Solutions, Llc	29/158	1/13
661	1839	Mutex Systems, Inc.	7/153	1/18
662	1845	Ocher Technology Group	11/121	5/49
663	1845	Softech International Resources, Inc.	3/151	3/19
664	1853	Fei.Com, Inc.	1/158	1/11
665	1853	Competent Systems, Inc	12/158	2/11
666	1853	Horizon Softech, Inc	2/153	1/16
667	1853	Netskope, Inc.	5/134	0/35
668	1853	North Point It Corp	9/145	0/24
669	1853	Dew Software, Inc.	7/155	1/14
670	1853	Ebsco Publishing	2/145	2/24
671	1853	Primus Global Services, Inc	9/157	0/12
672	1865	Theme Soft, Inc.	17/153	1/15
673	1865	Strategic Staffing It Inc	3/162	2/6
674	1865	Advanced Technology Consulting Service, Inc.	3/151	0/17
675	1865	Ksoft Systems Inc	1/146	1/22
676	1865	United It Solutions Inc	10/151	0/17
677	1877	American Technology Consulting, Llc	4/166	0/1
678	1877	Aci Worldwide Corp.	3/143	1/24
679	1877	Slashsupport, Inc.	1/161	0/6
680	1877	Resolve Tech Solutions Inc	9/133	1/34
681	1877	Bristlecone Inc.	6/152	0/15
682	1891	Pioneer Corporate Services Inc	6/158	0/8
683	1891	Royal Technocrats, Inc.	4/153	1/13
684	1891	Msrcosmos, Llc	0/163	0/3
685	1891	Wenova Inc.	1/142	1/24
686	1891	Deebecon Inc	3/155	1/11
687	1891	Professional Access Ltd.	7/164	0/2
688	1891	Mavensoft Technologies, Llc.	3/156	0/10
689	1905	Logic Soft Inc.	12/148	0/17
690	1905	The Ultimate Software Group, Inc.	7/128	2/37
691	1905	Trinity Consulting, Inc	3/142	2/23
692	1914	Comprobase, Inc.	12/149	3/15
693	1914	Aption Llc	6/152	0/12
694	1914	Techorbit, Inc.	6/143	1/21
695	1914	Vector Systems, Inc.	7/158	1/6
696	1914	Flexasoft	9/164	-
697	1914	Mapr Technologies, Inc.	0/116	4/48
698	1930	Globus It Incorporated	16/151	1/12
699	1930	Selectiva Systems Inc.	6/144	0/19
700	1930	Margin5 Solutions Inc	4/149	2/14
701	1930	Unicom Technologies, Inc.	2/153	0/10
702	1939	Esencia Technologies Inc	7/146	0/16
703	1939	Megan Soft, Inc.	6/156	0/6
704	1939	Computer Enterprises, Inc.	4/147	2/15
705	1939	Samiti Technology, Inc.	26/143	0/19
706	1939	Celer Systems, Inc.	5/150	0/12
707	1939	Divensi Inc.	15/157	0/5
708	1957	Eminence It Solutions, Inc.	4/142	1/19
709	1957	Tek Tree Llc	1/153	2/8
710	1957	Paramount Global Solutions, Inc.	1/149	0/12
711	1957	Kmk Consulting, Inc.	2/126	5/35
712	1957	Selsoft, Inc.	5/153	0/8
713	1957	Nuance Communications, Inc.	4/122	0/39
714	1971	Ascendum Solutions, Llc	30/157	2/3
715	1971	Charles River Systems, Inc.	2/130	2/30
716	1971	Javen Technologies, Inc.	7/125	0/35
717	1983	Dw Matrix Inc	9/142	1/17
718	1983	Drishticon Inc.	17/134	1/25
719	1983	Einfochips, Inc.	7/132	0/27
720	1994	Concept Software & Services, Inc.	10/149	0/9
721	1994	Teradyne Infotech	2/136	1/22
722	1994	Protech Solutions Inc.	3/143	1/15
723	1994	Global Systems LLC	2/140	0/18
724	1994	Tradeweb Markets Llc	0/133	0/25
725	1994	Eliassen Group, Llc	0/132	0/26
726	2007	Prodigy Technologies, Inc.	1/151	0/6
727	2007	Isolvetechnology Inc	4/129	2/28
728	2007	Tekstrom Inc	15/145	0/12
729	2019	Epeople Technologies Inc	1/146	0/10
730	2019	Technology Consultants Inc	3/119	11/37
731	2019	Trustek Inc.	7/145	0/11
732	2032	Egencia Llc	4/118	0/37
733	2032	Droisys, Inc.	7/125	9/30
734	2039	Appian Corporation	5/142	0/12
735	2039	Adi Worldlink, Llc	15/138	3/16
736	2039	Compest Solutions, Inc.	3/139	2/15
737	2053	Ordusion Technologies, Inc.	4/142	3/11
738	2053	Nitya Software Solutions, Inc	2/142	0/11
739	2053	Smallboard.Com	21/140	0/13
740	2053	Vensit Corp	22/145	0/8
741	2053	Estuate, Inc	9/142	0/11
742	2053	Innovative Information Technologies, Inc.	14/143	1/10
743	2066	Kronos Incorporated	3/120	0/32
744	2066	Tt Technologies Inc	0/142	1/10
745	2066	Zume It Inc	2/126	3/26
746	2066	Lgbs Software, Inc.	22/146	1/6
747	2080	Iflowsoft Solutions Inc.	10/138	2/13
748	2080	Tekmark Global Solutions Llc	0/144	0/7
749	2080	Server Management Services Llc	1/142	1/9
750	2080	Techligent Systems Inc.	11/133	1/18
751	2095	Technical Strategies Inc	6/142	0/8
752	2095	Unique Key Resources Inc	4/147	0/3
753	2095	Bmc Software, Inc.	5/107	4/43
754	2095	Appnexus, Inc.	1/112	1/38
755	2095	Stansource Inc	2/129	1/21
756	2095	Invensys Inc	1/139	1/11
757	2095	Hotwire, Inc.	1/129	0/21
758	2095	Unikon It Inc	3/120	1/30
759	2122	Applexus Technologies Llc	14/141	0/8
760	2138	Youngsoft Inc.	9/133	1/15
761	2138	Streamline Technologies, Inc	10/145	1/3
762	2138	Isoftech Inc	4/138	2/10
763	2138	Mudrasys,Inc.	8/129	14/19
764	2138	Signature Commercial Solutions, Llc	6/135	0/13
765	2138	Akt, Llc.	2/134	1/14
766	2138	Galaxy I Technologies, Inc.	7/132	0/16
767	2156	Torque Technologies Llc	14/143	0/4
768	2156	Verifone Holdings, Inc.	1/119	1/28
769	2156	Anu Software Consultants, Inc.	2/123	6/24
770	2156	Novisync Solutions, Inc.	19/147	-
771	2176	Mintex Tech, Inc	5/135	4/11
772	2176	Primasoft Inc	10/135	3/11
773	2176	Web Yoga, Inc.	2/143	1/3
774	2176	Titan Technologies Inc	13/138	3/8
775	2192	Kennedy International Software,Inc	5/145	-
776	2192	Zifo Technologies Inc.	2/142	0/3
777	2192	Anid Infosoft Llc	4/143	0/2
778	2192	Computer Aid, Inc.	5/130	0/15
779	2207	4-Serv Solutions Inc	2/133	2/11
780	2207	Cbs Interactive, Inc.	11/120	0/24
781	2207	Omega Solutions Inc	0/142	0/2
782	2219	Interface Systems, Inc.	2/143	-
783	2219	Quora, Inc.	1/113	0/30
784	2219	Polar It Services Inc	4/133	3/10
785	2219	Cavisson Systems, Inc.	0/123	4/20
786	2219	Innovatech Solutions, Inc.	8/130	0/13
787	2219	Rivi Consulting Group, Inc.	8/134	0/9
788	2219	Icsa Inc	10/129	2/14
789	2239	Technozant Llc	1/134	0/8
790	2239	Northstar Technologies, Inc.	0/124	2/18
791	2239	Corp2corp Inc	0/131	1/11
792	2239	Sv It Inc	1/136	0/6
793	2239	Skillstorm Commercial Services Llc	6/128	0/14
794	2256	Smart Information Management Systems, Inc.	5/116	2/25
795	2256	Source Consulting, Llc	5/134	0/7
796	2256	Prosoft It Services, Inc	6/126	2/15
797	2256	Openbox Solutions, Inc.	2/135	0/6
798	2256	Early Warning Services, Llc	2/110	4/31
799	2256	Ibrain Technologies, Inc.	1/102	11/39
800	2256	Sony Pictures Entertainment Inc.	2/123	2/18
801	2256	Objects On Net, Inc.	7/130	3/11
802	2256	Maganti It Resources, Llc	12/136	1/5
803	2277	Clinpharma Clinical Research, Llc	3/129	0/11
804	2277	China Telecom (Americas) Corporation	18/138	0/2
805	2277	Global Data Management, Inc.	2/125	2/15
806	2288	Promantus Inc.	3/109	1/30
807	2288	Vortalsoft, Inc	0/132	1/7
808	2288	Dolphin Solutions Inc	7/125	3/14
809	2306	Airline Tariff Publishing Company (Atpco)	8/107	1/31
810	2306	Aureus Techsystems Llc	3/122	1/16
811	2306	Cquent Systems Inc	7/134	0/4
812	2306	Marriott International, Inc.	0/118	1/20
813	2306	Infobahn Softworld, Inc	3/124	0/14
814	2306	Thought Byte, Inc.	5/121	9/17
815	2306	Global It, Inc.	8/128	4/10
816	2306	A1 Kaiser Inc	10/130	0/8
817	2324	International Systems Technologies, Inc.	7/120	2/17
818	2324	Xtivia, Inc.	7/120	2/17
819	2324	Lilax Technologies Inc	10/131	0/6
820	2324	World Wide Technology Holding Company, Inc.	8/117	0/20
821	2324	Kriddha Technologies, Inc.	3/118	1/19
822	2347	Cinergy Technology, Inc.	9/119	3/17
823	2347	Newt Global Consulting, Llc	1/120	0/16
824	2347	Sriven Technologies, Llc	7/113	1/23
825	2363	Digipulse Technologies, Inc.	7/123	1/12
826	2363	Isolvers, Inc	2/126	0/9
827	2363	W3global, Inc.	8/125	0/10
828	2363	Intralinks, Inc.	6/107	2/28
829	2363	Gyansys Inc.	3/118	0/17
830	2363	Aita Consulting Services, Inc.	3/123	0/12
831	2363	Infosmart Systems Inc	2/128	2/7
832	2363	Shubh Solutions Llc	3/126	0/9
833	2363	Ecloud Labs Inc	7/116	2/19
834	2363	Lenmar Consulting Inc.	6/129	0/6
835	2384	Finsoft Consultants, Inc.	3/126	1/8
836	2384	Infosytech Solutions, Inc.	1/117	4/17
837	2384	Ferguson Consulting, Inc.	2/129	0/5
838	2397	E3 Global, Inc.	4/123	0/10
839	2397	Wisdom Infotech, Ltd.	3/123	0/10
840	2397	Ss&C Technologies, Inc.	5/113	1/20
841	2397	Business Intelligence Systems, Inc.	2/112	1/21
842	2411	Zscaler, Inc.	2/114	2/18
843	2411	Symphony Corporation	0/106	2/26
844	2411	Data Concepts, Llc	2/123	0/9
845	2411	Logicque Inc.	0/125	0/7
846	2411	Ilogik, Inc.	1/132	-
847	2411	Fujitsu Network Communications, Inc.	6/114	1/18
848	2411	Clutchpoint, Llc	2/119	0/13
849	2411	Datametrics Software Systems Inc	10/124	1/8
850	2411	Cogent Integrated Business Solutions, Inc	0/125	3/7
851	2433	Simeio Solutions, Llc	3/106	2/25
852	2433	Clear Thought Solutions Llc	1/121	3/10
853	2433	M2 Resources, Inc.	8/122	0/9
854	2433	Logitech Inc.	4/96	0/35
855	2433	Kpk Technologies Inc	15/128	0/3
856	2433	Covetit, Inc.	3/116	1/15
857	2433	Quadrant 4 System Corporation	7/106	1/25
858	2433	Apex It Services, Llc	15/116	2/15
859	2453	Estrada Consulting Inc	2/115	1/15
860	2453	The Principal Consulting, Inc.	9/120	0/10
861	2453	Grapnel Tech Services, Llc	8/117	0/13
862	2453	Quantcast Corporation	2/95	7/35
863	2453	Saksoft, Inc.	4/115	1/15
864	2471	Sita Corp	6/113	2/16
865	2471	Infospan, Inc.	0/109	4/20
866	2471	Mgm Resorts International Operations, Inc.	15/127	0/2
867	2471	Global Resource Management, Inc.	10/120	0/9
868	2471	Techmagix, Inc.	3/118	0/11
869	2491	International Technologies Pro, Llc	12/124	1/4
870	2491	Programmer Resources International, Inc.	4/106	1/22
871	2491	Prospect Infosys, Inc.	4/109	6/19
872	2501	Analysts International Corporation	0/115	2/12
873	2501	Cignex Datamatics Inc	11/112	3/15
874	2501	Proswift Consulting, Llc	38/125	0/2
875	2501	Covant Solutions Inc	1/121	0/6
876	2501	American It Resource Group, Inc	2/117	0/10
877	2526	Niha Technologies, Inc.	5/126	-
878	2526	Software Professionals Inc	13/117	0/9
879	2526	Netscout Systems, Inc.	2/86	1/40
880	2526	Bentley Systems, Incorporated	4/104	5/22
881	2526	Infosys Solutions, Inc.	0/114	0/12
882	2544	Hp Infosystems Llc	4/111	0/14
883	2544	Horizon Advanced Systems Inc.	7/120	0/5
884	2544	Netvision Resources, Inc	8/117	3/8
885	2544	Gb Tech, Inc.	19/121	0/4
886	2544	Orasys Llc	1/110	1/15
887	2544	Digital Intelligence Systems, Llc	3/115	1/10
888	2566	Turnberry Solutions Inc.	6/121	0/3
889	2566	Resourcesoft, Inc.	10/123	0/1
890	2566	Saggezza, Inc.	3/115	0/9
891	2566	Tribis, Inc.	7/112	0/12
892	2589	Swift Technologies, Inc.	16/121	0/2
893	2589	Innovate Solutions Inc	2/120	0/3
894	2589	Urooj, Llc	4/117	1/6
895	2589	Partners Information Technology Inc.	7/105	0/18
896	2589	Erpmark, Inc.	1/117	2/6
897	2589	Mulesoft, Inc.	0/97	1/26
898	2589	New England It Associates, Inc	4/106	0/17
899	2618	Lera Technologies, Llc	21/114	3/8
900	2618	E-It Professionals Corp.	0/116	0/6
901	2618	Adroix Corp (Dba) Codeforce 360	0/77	8/45
902	2618	Telenav, Inc.	1/96	4/26
903	2618	Quality Software Services, Inc.	20/99	1/23
904	2618	Alrek Business Solutions, Inc	2/105	3/17
905	2618	Y-Axis, Inc.	10/118	2/4
906	2639	Amtex Systems, Inc.	2/103	1/18
907	2639	Z3 Technologies Inc	3/116	0/5
908	2656	Strategic Systems, Inc.	4/115	0/5
909	2656	Iknowvate Technologies, Inc.	7/116	0/4
910	2656	Tiger Analytics, Llc	10/105	2/15
911	2656	Csc Consulting, Inc.	6/112	0/8
912	2656	Advantecs Group, Inc	18/118	0/2
913	2656	Pax International Co.Inc	3/115	0/5
914	2682	Norgate Technology, Inc.	4/109	0/10
915	2682	Stat9 Technologies Inc.	5/112	0/7
916	2682	Highdata Software Corporation	5/110	0/9
917	2682	Tintri, Inc	3/88	7/31
918	2682	Ingram Micro Inc.	3/103	0/16
919	2701	Tyler Technologies, Inc.	5/84	2/34
920	2701	Doli Systems Inc.	2/109	0/9
921	2701	Sophos, Inc.	2/94	1/24
922	2701	Paradigm Info Tech Inc	1/109	1/9
923	2701	The Hackett Group, Inc.	4/98	1/20
924	2701	Eminence Consulting, Inc.	4/116	0/2
925	2716	Fourth Technologies, Inc.	3/91	1/26
926	2716	Continental Technology Solutions Inc	5/112	0/5
927	2716	Athenahealth, Inc.	9/98	1/19
928	2732	Excelacom Inc	8/106	1/10
929	2732	Veeva Systems, Inc.	1/91	2/25
930	2732	Osisoft, Llc	1/90	5/26
931	2732	Sri Anjaneya Technologies, Llc	4/102	1/14
932	2754	Datamart Systems Inc	6/109	1/6
933	2754	Zenmonics, Inc.	2/104	2/11
934	2754	E-Emphasys Technologies Inc	4/111	0/4
935	2754	Neustar, Inc.	2/92	0/23
936	2754	Invictus Infotech Llc	2/106	0/9
937	2754	Tbd Pizza, Inc.	1/98	0/17
938	2754	Smart Erp Solutions	2/102	2/13
939	2754	Opel Systems, Inc.	0/101	0/14
940	2754	N2 Services, Inc.	4/99	0/16
941	2754	Fusion Global Solutions Llc	10/110	0/5
942	2754	Qa Infotech, Inc.	1/107	0/8
943	2781	Velaga Associates, Inc.	9/85	4/29
944	2781	Peterson Technology Partners, Inc.	7/94	0/20
945	2781	Symbol Software Services, Inc.	5/107	0/7
946	2781	Acclaim Systems, Inc.	2/93	0/21
947	2781	Cardus, Inc.	4/98	0/16
948	2781	Sierra Infosys, Inc	16/109	2/5
949	2800	Dazzlon Computer Services Inc	4/113	-
950	2800	Info Labs, Inc.	1/102	2/11
951	2800	Abridge Info Systems Inc.	5/102	0/11
952	2800	Ecom Solutions Inc	1/102	0/11
953	2800	Global Technical Software Services, Inc.	8/103	0/10
954	2800	3k Technologies, Llc	7/106	0/7
955	2800	Suntechpros Inc.	1/102	0/11
956	2800	Accuity, Inc	2/87	2/26
957	2824	Corporate Computer Solutions, Llc	9/106	0/6
958	2824	Galaxy Software Solutions, Inc	7/105	1/7
959	2824	Eteam, Inc.	4/106	0/6
960	2824	Jvr Systems, Inc.	6/102	2/10
961	2824	Gdn Infotech, Inc.	4/95	0/17
962	2824	Grid Dynamics International, Inc.	5/74	3/38
963	2824	Royal Cyber Inc.	2/101	1/11
964	2824	Compass Group Usa Inc.	2/93	0/19
965	2824	Sunray Informatics Inc.	2/104	1/8
966	2849	Cwc International, Inc.	0/85	3/26
967	2849	Whiz It Solutions Inc	0/101	2/10
968	2849	Genius Business Solutions, Inc.	6/91	2/20
969	2849	Actimize Inc.	5/88	0/23
970	2868	Urban Compass, Inc.	5/106	0/4
971	2868	Technet Llc	3/93	1/17
972	2868	Palni Inc	1/103	0/7
973	2868	Mark Infotech, Inc.	2/106	0/4
974	2868	Armstrong Technologies, Inc.	5/105	2/5
975	2868	Edify Technologies, Inc.	6/95	0/15
976	2868	West Coast Consulting Llc	6/105	1/5
977	2868	Resource America Information Technology, Inc.	1/100	0/10
978	2868	Tenazx Inc.	6/97	1/13
979	2868	Acumen Solutions Inc	5/89	1/21
980	2890	Metricstream, Inc.	8/103	0/6
981	2890	Prosoft Technologies Inc	27/107	0/2
982	2890	Mindteck, Inc.	0/101	2/8
983	2890	Gateway Solutions, Inc.	1/99	0/10
984	2890	Intrigo Systems Incorporated	5/100	0/9
985	2890	Broadgate, Inc.	2/102	0/7
986	2890	Trend Micro, Inc.	0/82	1/27
987	2890	Covanex, Inc.	1/101	0/8
988	2927	Calypso Technology, Inc.	0/82	0/26
989	2927	Pegasys Systems & Technologies, Inc.	8/96	5/12
990	2927	Active Enterprise Solutions	5/104	0/4
991	2927	American Infosys, Inc	2/91	2/17
992	2946	Dots Technologies, Inc	2/92	2/15
993	2946	Vennsys Llc	10/92	0/15
994	2946	Scioinspire, Corp.	11/98	0/9
995	2946	Xad, Inc.	4/101	1/6
996	2946	Datacaliper, Llc	4/97	1/10
997	2946	Hanu Software Solutions, Inc.	0/101	3/6
998	2946	Teknest Inc	4/95	0/12
999	2946	Data Glove Inc.	3/106	1/1
1000	2946	Jetblue Airways	4/78	1/29
1001	2976	Talend, Inc.	1/87	2/19
1002	2976	3core Systems, Inc.	1/97	0/9
1003	2976	Globant, Llc	3/83	3/23
1004	2976	Softlabs Na, Inc.	1/99	0/7
1005	2976	I&I Software, Inc.	0/101	0/5
1006	2976	Genuineit, Llc	6/103	1/3
1007	2976	International Solutions Group, Inc.	5/96	0/10
1008	2976	Pactera Technologies Inc.	1/88	1/18
1009	2999	Brite Systems, Inc.	10/93	1/12
1010	2999	American Professionals Inc	2/94	0/11
1011	2999	Vcarve Inc	3/88	0/17
1012	2999	Virtustream Inc.	5/88	0/17
1013	2999	Verisign, Inc.	3/92	0/13
1014	2999	Dynamic Enterprise Solutions, Inc.	1/101	0/4
1015	3018	Dynamic Itsolutions Inc	7/98	0/6
1016	3018	Aristocrat Technologies, Inc.	4/92	4/12
1017	3018	Pocket Gems, Inc.	3/81	0/23
1018	3018	Global Sumi Technologies, Inc.	2/93	0/11
1019	3018	Soft Computer Consultants, Inc.	4/83	6/21
1020	3018	Yasme Soft, Inc.	1/95	0/9
1021	3043	Sparity, Inc.	3/89	0/14
1022	3043	Ipsoft Incorporated	1/88	0/15
1023	3043	Keste, Llc	1/93	0/10
1024	3043	Beyondsoft Consulting, Inc.	2/97	0/6
1025	3043	Two95 International Inc.	4/89	1/14
1026	3043	U.S. Cellular Corporation	5/76	0/27
1027	3043	Region Technologies, Inc.	5/79	0/24
1028	3043	Datamatics Global Services Inc	12/97	1/6
1029	3043	Judge Technical Services, Inc	2/90	4/13
1030	3043	Ampcus, Inc.	7/91	0/12
1031	3043	Sricom, Inc	0/98	1/5
1032	3043	Truecar, Inc.	8/86	0/17
1033	3043	Calsoft Labs, Inc.	5/92	5/11
1034	3043	Valtech Solutions Inc.	5/88	3/15
1035	3078	Computech Corporation	1/97	0/5
1036	3096	Confiminds Llc	5/87	0/14
1037	3096	Headstream Inc	0/93	0/8
1038	3096	Essence Group Holdings Corporation	0/86	0/15
1039	3096	Tekcommands, Inc.	4/93	0/8
1040	3096	Indu, Llc	5/99	0/2
1041	3096	Drfirst.Com, Inc.	0/79	5/22
1042	3096	22nd Century Technologies, Inc	0/94	0/7
1043	3096	Novelty Infotech, Inc	2/94	0/7
1044	3114	Apptio, Inc.	3/70	1/30
1045	3114	Acro Service Corporation	17/90	0/10
1046	3114	Teckpros Llc	11/89	0/11
1047	3114	Maxisit, Inc	4/92	0/8
1048	3114	Valiantica Inc	1/100	-
1049	3114	Erp Logic, Llc.	10/91	0/9
1050	3114	Candor Ps Llc	5/83	0/17
1051	3114	Ajace Inc	2/92	0/8
1052	3114	Ez Solutions Inc	3/96	0/4
1053	3114	Iquadra Information Services Llc	4/92	0/8
1054	3148	Agility Technologies, Llc	18/85	1/14
1055	3148	Zuven Technologies Inc	0/93	1/6
1056	3148	Ivy Tech Solutions, Inc	6/95	1/4
1057	3148	Cytel Inc.	7/83	0/16
1058	3148	Advaitaa Technologies, Inc.	9/85	1/14
1059	3148	Hire It People, Llc	3/73	1/26
1060	3148	Business Integra Technology Solutions Inc.	3/95	1/4
1061	3148	Tek Services Llc	7/75	3/24
1062	3148	Opensoft Inc	3/97	1/2
1063	3148	Evernote Corporation	0/81	1/18
1064	3178	Softclouds, Llc.	3/91	0/7
1065	3178	Asana, Inc.	4/86	0/12
1066	3178	Circular Edge, Llc	0/87	0/11
1067	3178	Dynpro, Inc.	8/93	0/5
1068	3178	Amicus Systems Inc	6/87	1/11
1069	3178	Care It Services Inc	1/91	1/7
1070	3178	Imbuesys, Inc.	5/93	0/5
1071	3178	Netcracker Technology Corporation	1/76	2/22
1072	3178	Synchronoss Technologies, Inc.	1/78	1/20
1073	3205	Perk Systems, Inc	1/84	5/13
1074	3205	Esri Inc.	-	5/97
1075	3205	Appsintegration, Inc	4/94	1/3
1076	3205	Tekshapers, Inc.	27/91	1/6
1077	3205	Boss Technologies, Inc	4/87	1/10
1078	3205	Government Systems Technologies, Inc.	4/91	1/6
1079	3205	Spi Management Services, Llc	2/94	0/3
1080	3205	Sumas Corporation	3/95	1/2
1081	3205	Sovereign Technologies, Inc.	4/80	4/17
1082	3205	Ascii Global LLC	6/92	1/5
1083	3242	Nalashaa Llc	2/90	0/6
1084	3242	Datasys Consulting & Software, Inc.	3/87	0/9
1085	3242	Worldscape, Inc.	0/92	0/4
1086	3242	United Business Solutions, Inc.	0/87	1/9
1087	3242	Compuga Inc	7/91	0/5
1088	3242	E-Data Experts Inc	9/89	0/7
1089	3242	Digital Terrain, Inc.	2/82	2/14
1090	3242	Yashraj Technologies Inc	3/81	8/15
1091	3274	Responsive Technologies Inc.	5/93	0/2
1092	3274	Cerebra Consulting, Inc.	1/85	2/10
1093	3274	Wissen Infotech, Inc.	1/83	1/12
1094	3274	Dimension Data North America	4/55	5/40
1095	3274	Maxpro Inc	1/86	0/9
1096	3274	Metaprousa Llc	9/87	0/8
1097	3274	Edataworld, Llc	2/64	0/31
1098	3274	Pvk Corporation	1/87	0/8
1099	3303	Shakti Group, Inc. (Aka Shakti Solutions)	9/81	2/13
1100	3303	Surya Systems Inc	0/82	0/12
1101	3303	Citadel Information Services Inc.	2/83	0/11
1102	3303	Systech Solutions, Inc.	5/78	0/16
1103	3303	Ramp Technology Group Llc	2/66	15/28
1104	3303	The Fidelis Group	2/88	0/6
1105	3303	Flextrade Systems, Inc.	17/83	1/11
1106	3336	Delta Computer Consulting, Inc.	2/78	0/15
1107	3336	Take Enterprise Services Inc	7/87	0/6
1108	3336	4consulting, Inc	8/85	0/8
1109	3336	Radus Tek Services Inc.,	5/91	0/2
1110	3336	Keen Info Tek, Inc.	4/90	0/3
1111	3336	Qwest Corporation	1/84	1/9
1112	3336	Softthink Solutions, Inc.	0/77	5/16
1113	3336	Zaspar Technologies Llc	1/93	-
1114	3336	Tejase Technologies Inc.	2/93	-
1115	3336	Saransh Inc	1/87	1/6
1116	3336	Glaman Tech, Inc	0/87	0/6
1117	3336	Samepage Information Solutions, Inc	1/88	0/5
1118	3336	Travelport, Lp	2/71	1/22
1119	3376	Attune Consulting Usa Inc.	4/79	0/13
1120	3376	Initech Global Llc	2/79	0/13
1121	3376	Epcot Technologies Inc	3/84	0/8
1122	3376	Popular Tech	1/81	0/11
1123	3376	Jireh Solutions, Llc	3/86	0/6
1124	3376	Infinite Computing Systems, Inc.	6/87	0/5
1125	3376	Ishift Corp	6/74	0/18
1126	3376	Xceltrait, Inc.	0/83	2/9
1127	3376	Twentieth Century Fox Film Corp.	1/67	2/25
1128	3376	Surveymonkey.Com, Llc	4/76	2/16
1129	3376	Rsm Technology Solutions, Inc.	0/79	1/13
1130	3376	Vertisystem Inc	8/81	0/11
1131	3376	Allwyn Corporation	0/88	1/4
1132	3418	Armo Consultants	2/77	1/14
1133	3418	Malvi Systems Llc	10/90	0/1
1134	3418	Introlligent Inc.	1/86	0/5
1135	3418	Healthedge Software, Inc.	3/76	1/15
1136	3418	Callidus Software Inc.	1/77	1/14
1137	3438	Hanusoft Inc	3/81	3/9
1138	3438	Infojini, Inc.	1/83	0/7
1139	3438	Alfa Services Usa Inc	2/85	1/5
1140	3438	Flex Consulting Group, Inc.	1/83	0/7
1141	3438	Quantum Vision, Llc	5/75	0/15
1142	3438	Bayminds Inc	2/69	18/21
1143	3438	Inphi Corporation	1/76	0/14
1144	3438	Logic Information Systems, Inc.	6/65	0/25
1145	3438	Prutech Solutions Inc.	7/73	2/17
1146	3438	Fast Enterprises Llc	14/83	0/7
1147	3471	Spidercloud Wireless, Inc.	6/79	0/10
1148	3471	Riverpoint Management, Llc	11/78	4/11
1149	3471	Jsm Consulting	0/78	4/11
1150	3471	Master Informatix Systems Inc	9/83	0/6
1151	3471	Nest Technologies Corporation	7/85	0/4
1152	3471	Cybermass Solutions Inc	7/76	3/13
1153	3509	Prosoft Associates	6/81	1/7
1154	3509	Zolon Tech Solutions, Inc.	5/80	1/8
1155	3509	Corpteq Solutions Inc.	0/75	1/13
1156	3509	Teradyne, Inc.	5/75	0/13
1157	3509	Novalink Solutions Llc	4/75	0/13
1158	3509	Gigamon, Inc.	2/65	0/23
1159	3509	Service Oriented Solutions, Llc	1/84	0/4
1160	3509	Resourcesys, Inc.	2/85	0/3
1161	3509	Ken Systems, Inc.	23/80	2/8
1162	3509	Infotree Service, Inc.	4/82	1/6
1163	3509	Zeomega, Inc.	1/72	1/16
1164	3549	Externetworks Inc	10/76	2/11
1165	3549	Sgic Cloud Technologies Inc	1/82	2/5
1166	3549	Cogent Data Solutions Llc	3/72	3/15
1167	3549	Infotech Valley, Inc	4/82	0/5
1168	3549	Glu Mobile Inc.	1/69	0/18
1169	3549	Avidxchange, Inc.	4/69	2/18
1170	3549	Cgi Federal, Inc.	0/82	0/5
1171	3549	Aa Software & Networking, Inc.	2/79	0/8
1172	3549	Six Continents Hotels Inc.	2/72	0/15
1173	3549	Stellent Solutions Inc	1/87	-
1174	3579	Avnet, Inc.	0/78	1/8
1175	3579	Prolim Global Corporation	0/62	2/24
1176	3579	Adt Llc	1/69	0/17
1177	3579	Metasofttech Solutions, Inc.	1/72	4/14
1178	3579	Pointwest Technologies Corp. Us	1/75	0/11
1179	3579	Cigital, Inc.	7/80	2/6
1180	3579	Tekvalley Corporation,Inc.	1/81	0/5
1181	3579	Kpi Partners, Inc.	3/82	0/4
1182	3579	Quantum Secure, Inc.	1/67	1/19
1183	3579	Computer Task Group, Inc.	2/74	1/12
1184	3579	Ibusiness Solution, Llc	15/77	0/9
1185	3579	Osi Consulting Inc.	3/74	0/12
1186	3579	Pro Unlimited	16/83	1/3
1187	3579	Adept Computer Consultants, Inc.	4/77	0/9
1188	3579	Thinc Systems, Inc	3/84	0/2
1189	3579	Netgear, Inc.	2/66	2/20
1190	3619	Dynamics Resources Inc.	1/63	3/22
1191	3619	Om Partners Usa	25/81	0/4
1192	3619	Nexage Technologies Usa Inc	0/77	1/8
1193	3619	Makro Technologies Inc	4/78	3/7
1194	3619	Zeva Technology, Llc	7/71	0/14
1195	3619	Qsi Services, Inc.	4/73	4/12
1196	3619	Braves Technologies Llc	7/74	0/11
1197	3619	Element Technologies, Inc.	2/78	0/7
1198	3619	Peritus Inc	6/85	-
1199	3619	Walt Disney Pictures	0/70	0/15
1200	3619	Voxai Solutions Inc.	1/73	1/12
1201	3619	Dataedge Consulting, Inc.	4/82	0/3
1202	3652	Infosemantics Inc	2/72	0/12
1203	3652	Leantaas, Inc.	2/79	0/5
1204	3652	Visual Consultants, Inc.	1/78	1/6
1205	3652	Jri America Inc.	1/67	2/17
1206	3652	Serenity Infotech, Inc.	8/75	0/9
1207	3652	Fareportal Inc.	3/73	1/11
1208	3652	Infogen Software Inc.	0/81	0/3
1209	3652	Carbonite, Inc.	0/61	4/23
1210	3652	Hyatt Corporation	1/64	0/20
1211	3691	Harward Technologies Llc	4/69	1/14
1212	3691	Navis Llc	1/67	0/16
1213	3691	Bitsoft International, Inc.	4/82	0/1
1214	3691	Scadea Solutions Inc.	2/77	0/6
1215	3691	Dvr Softek Inc	3/76	2/7
1216	3691	Bramasol, Inc.	2/71	0/12
1217	3691	Devcare Solutions, Ltd.	3/72	1/11
1218	3691	Sriven Infosys, Inc	0/78	1/5
1219	3691	Collabrium Systems Llc	0/70	0/13
1220	3736	Ida Solutions, Inc	3/72	1/10
1221	3736	Sci It Solutions Pvt. Ltd.	2/76	0/6
1222	3736	Softcon Usa, Inc.	5/75	0/7
1223	3736	Pioneer Technologies, Inc.	1/71	1/11
1224	3775	Healthstream, Inc.	7/66	1/15
1225	3775	Partners Soft, Inc	4/75	0/6
1226	3775	Digitek Software Inc	0/71	0/10
1227	3775	Ssb Software Technologies, Inc.	2/70	4/11
1228	3775	Spl Consulting, Llc	0/73	1/8
1229	3775	Bijjam Information Technologies, Inc.	0/80	0/1
1230	3775	Seal Consulting, Inc.	0/69	0/12
1231	3775	Meridian Technoplogy Solutions Inc	10/79	0/2
1232	3775	Think Development Systems	0/73	0/8
1233	3775	Wyndham Hotel Group, Llc	3/73	0/8
1234	3775	Etq Management Consultants, Inc.	5/70	2/11
1235	3775	Zl Technologies, Inc.	25/71	0/10
1236	3775	Lanco Global Systems, Inc.	2/77	1/4
1237	3826	Nuvento Llc	0/72	4/8
1238	3826	Teleworld Solutions, Inc.	1/70	2/10
1239	3826	Vce Company, Llc	1/77	0/3
1240	3826	Vtekh, Inc.	1/73	2/7
1241	3826	Reveille Technologies, Inc.	4/79	0/1
1242	3826	Capricorn Systems, Inc.	3/72	0/8
1243	3826	Accel North America, Inc.	0/77	1/3
1244	3826	Logicatech,Inc	0/77	1/3
1245	3826	Iservices Inc	5/76	0/4
1246	3826	Independent Computer Consulting Group, Inc.	28/76	1/4
1247	3865	Citronit Inc	2/72	1/7
1248	3865	Sap Industries, Inc.	0/70	0/9
1249	3865	Cybecys, Inc	0/72	0/7
1250	3865	Sharpedge Solutions, Inc.	0/66	2/13
1251	3865	Softsol Resources Inc.	4/73	1/6
1252	3865	Sirius Computer Solutions, Inc	1/71	0/8
1253	3865	Portland General Electric Company	2/56	4/23
1254	3865	Progress Solutions Inc.	3/75	0/4
1255	3865	National Consulting Group Inc	3/69	3/10
1256	3865	Teqtron, Inc.	3/63	1/16
1257	3865	Power Costs, Inc.	1/69	1/10
1258	3904	Numann Technologies, Inc.	1/75	2/3
1259	3904	Questpay Inc.	8/68	0/10
1260	3904	Vectra Infosys Inc.	3/71	0/7
1261	3904	Patel Consultants Corporation	3/67	0/11
1262	3904	Sai Business Solutions, Llc	5/72	1/6
1263	3904	Tata Communications (America) Inc.	0/66	0/12
1264	3904	Uniplus Consultants Inc.	9/72	1/6
1265	3904	Codeworks, Inc.	6/63	4/15
1266	3904	Sri Software Solutions	2/77	1/1
1267	3904	Cox Communications	2/62	2/16
1268	3904	Supremesoft Corporation	3/77	0/1
1269	3943	R S Infocon Inc	5/71	0/6
1270	3943	Vinsys Information Technology Inc	10/67	6/10
1271	3943	Realpage, Inc.	8/66	0/11
1272	3943	Sigma Group Inc	2/61	1/16
1273	3943	Cyberbrains Inc	3/72	0/5
1274	3943	Datavail Corporation	4/69	1/8
1275	3943	Enterprise Business Solutions, Inc.	6/77	-
1276	3943	Aries Computer Systems, Inc.	1/73	0/4
1277	3985	Technocraft Solutions, Llc	0/68	0/8
1278	3985	Mars Infotech Inc	7/69	0/7
1279	3985	Msc.Software Corporation	1/71	0/5
1280	3985	Tekreliance Llc	0/75	0/1
1281	3985	Fulcrum Worldwide Inc	5/71	1/5
1282	3985	Global Information Systems, Inc	8/74	0/2
1283	3985	Savvytech Solutions Inc	1/68	1/8
1284	3985	Sailpoint Technologies, Inc.	2/57	1/19
1285	3985	Vcit Solutions, Inc	6/68	2/8
1286	3985	Netstrive Consulting	3/67	0/9
1287	3985	Beta Cae Systems Usa, Inc.	1/61	0/15
1288	3985	Datum Software Inc.	6/65	0/11
1289	3985	Cdw Technologies, Inc.	2/61	1/15
1290	3985	Epi-Use America, Inc.	8/55	0/21
1291	4014	Viva Usa Inc.	0/71	0/4
1292	4014	Logicgate Technologies, Inc.	1/66	0/9
1293	4014	Genesis Corporation	1/70	0/5
1294	4014	Moxie Systems, Inc.	6/72	0/3
1295	4014	Rcr Technology Corporation	1/67	0/8
1296	4014	Appisoft Inc.	6/72	1/3
1297	4014	Levanture Inc.	7/68	2/7
1298	4014	Nexinfo Solutions, Inc	3/68	0/7
1299	4014	Ibase Consulting Of Fairfield County, Llc	4/64	2/11
1300	4014	Iq Systems, Inc.	3/67	0/8
1301	4014	Imperva, Inc.	2/57	3/18
1302	4014	Implify, Inc.	3/70	0/5
1303	4014	Rs Software (India) Ltd.	1/71	0/4
1304	4073	Bill.Com	0/68	0/6
1305	4073	Synthesis Systems, Inc.	1/68	0/6
1306	4073	Techtu Business Solutions, Inc	2/66	0/8
1307	4073	Great Software Laboratory, Inc.	3/71	0/3
1308	4073	Concert Tech Corporation	7/67	0/7
1309	4073	Big Switch Networks, Inc.	0/59	0/15
1310	4115	Verans Business Solutions, Inc	2/70	1/3
1311	4115	Careerbuilder, Llc	2/61	1/12
1312	4115	Outline Systems, Inc.	0/70	0/3
1313	4115	Mirantis, Inc.	2/18	2/55
1314	4115	Auropro Systems Inc	2/70	0/3
1315	4115	Tekallianz Corporation	4/68	0/5
1316	4115	Varnar Inc	0/57	1/16
1317	4115	Mindworld Llc	0/65	0/8
1318	4115	Cdi Corporation	1/62	0/11
1319	4115	It Business Management Solutions, Inc.	1/67	2/6
1320	4115	The Mill Group, Inc.	0/68	0/5
1321	4115	Supreme Tech Solutions Llc	0/63	0/10
1322	4115	Stellar Services, Inc.	6/68	0/5
1323	4115	Smart Solutions, Inc	4/67	0/6
1324	4177	Flexera Software Llc	2/66	2/6
1325	4177	Addepar, Inc.	1/56	0/16
1326	4177	Applet Systems Llc	0/69	0/3
1327	4177	Indidge Systems	0/68	0/4
1328	4177	It-Scient Llc	0/66	0/6
1329	4177	Enfusion, Llc	5/58	3/14
1330	4177	Spica Computers, Llc	5/72	-
1331	4177	Delta Information Systems, Inc	1/67	0/5
1332	4177	E*pro Technologies, Llc.	5/65	1/7
1333	4177	Peakpoint Technologies, Inc.	2/69	1/3
1334	4221	Cougar Tech	5/68	0/3
1335	4221	Kip Information Technologies Inc	2/64	1/7
1336	4221	Softcrylic Llc	0/69	0/2
1337	4221	Novisys Llc	0/69	0/2
1338	4221	Virtuosa Global Solutions Llc	1/67	0/4
1339	4221	Shivam Infotech, Inc	2/65	0/6
1340	4221	Codesoft International, Inc.	1/70	0/1
1341	4221	Amitech Solutions, Inc.	3/54	3/17
1342	4221	Webroot, Inc.	1/54	3/17
1343	4221	Blackberry Corporation	0/58	0/13
1344	4221	Zenosys Llc	2/56	1/15
1345	4221	Masterex Technologies, Inc.	10/63	1/8
1346	4221	Rcg Global Services, Inc.	2/60	0/11
1347	4221	Amerisoft Corporation	4/67	0/4
1348	4221	Qad Inc.	6/59	4/12
1349	4221	Big Sky Global Llc	0/63	0/8
1350	4265	Dw Practice Llc	3/62	1/8
1351	4265	Aimic Inc	1/62	0/8
1352	4265	Visam Technologies, Inc.	2/65	0/5
1353	4265	Pactera Technologies Na, Inc	0/67	0/3
1354	4265	Karsun Solutions Llc	3/56	1/14
1355	4265	Euclid Technologies Llc	9/62	0/8
1356	4265	Squarespace, Inc.	2/62	2/8
1357	4265	Accolite, Inc.	3/60	1/10
1358	4265	Eastbanc Technologies, Llc	0/54	0/16
1359	4265	Skillnet Solutions Inc	1/60	0/10
1360	4265	Techgene Solutions, Llc	1/65	2/5
1361	4265	Ces Usa, Inc.	0/64	0/6
1362	4265	Trigyn Technologies, Inc.	3/63	0/7
1363	4265	Momentum Consulting Corporation	0/64	0/6
1364	4265	Huge, Llc	12/63	0/7
1365	4265	Resource Point, Llc	4/62	0/8
1366	4265	Steris Corporation	6/56	1/14
1367	4265	Elite It Solutions Inc	0/70	-
1368	4324	Mentis Solutions Inc.	3/69	-
1369	4324	Pegasystems Inc.	2/64	0/5
1370	4324	S R International Inc.	3/66	0/3
1371	4324	The Matlen Silver Group, Inc.	4/69	-
1372	4324	V2soft Inc.	3/62	0/7
1373	4324	Datasoft Inc.	1/64	0/5
1374	4324	Validation Transcription Services Inc.	4/54	1/15
1375	4377	Mixpanel, Inc.	1/55	1/13
1376	4377	Rst Solutions, Inc.	7/60	0/8
1377	4377	Snaplogic, Inc.	0/58	1/10
1378	4377	Mahantech Corporation	3/65	0/3
1379	4377	Gemalto, Inc.	0/44	1/24
1380	4377	Global Data Solutions, Inc.	0/62	0/6
1381	4377	Perigonsoft Llc	2/60	0/8
1382	4377	Harvest Software Solutions, Llc	2/62	0/6
1383	4377	Openlink Financial Llc	0/46	2/22
1384	4377	Us Software Professionals Inc	0/60	1/8
1385	4377	Compu Tech Computers, Inc.	1/64	0/4
1386	4377	Ab Ovo, Inc.	0/64	0/4
1387	4377	Data Intensity, Llc	7/64	0/4
1388	4377	Ezen Computer Services Inc.	6/60	0/8
1389	4377	Kk Associates, Llc	1/61	0/7
1390	4427	Ameriinfo Inc	5/67	-
1391	4427	Icon Technologies, Inc.	6/64	1/3
1392	4427	Ezenius Inc	9/64	2/3
1393	4427	Agama Solutions Inc.	2/62	0/5
1394	4427	Acmesoft Global, Inc.	4/60	0/7
1395	4427	Sun-It Solutions Inc	2/66	0/1
1396	4427	Infovity, Inc.	3/59	0/8
1397	4427	Epathusa, Inc	0/61	1/6
1398	4427	Everest Technologies, Inc.	0/45	0/22
1399	4427	Prabhav Eglobal Services	6/66	0/1
1400	4427	Aruna Info, Inc.	6/66	0/1
1401	4427	Blue Wolf Group, Llc	2/59	2/8
1402	4427	Murex North America Inc.	2/51	0/16
1403	4427	Rayven It Solutions Llc	0/56	0/11
1404	4485	Keshav Consulting Solutions, Llc	5/56	0/10
1405	4485	Xduce Corporation	1/55	0/11
1406	4485	Source Healthcare Analytics, Llc	3/53	1/13
1407	4485	Radical Software Solutions Inc	0/66	-
1408	4485	Ntrust Infotech Inc.	0/58	2/8
1409	4485	Sigmaways, Inc	2/60	0/6
1410	4485	Pdx, Inc.	0/50	1/16
1411	4485	Mejenta Systems Inc	4/60	0/6
1412	4485	Vensai Technologies, Inc	4/58	1/8
1413	4526	Dsys, Inc	2/65	-
1414	4526	Ondot Systems Inc	2/54	1/11
1415	4526	Itvision, Inc	0/60	1/5
1416	4526	Zaloni, Inc.	12/63	0/2
1417	4526	Ang Infotech Llc	1/62	3/3
1418	4526	Real World Technologies, Inc.	9/61	0/4
1419	4526	I2solvers, Inc.	1/63	0/2
1420	4526	Unisys Corporation	5/55	0/10
1421	4580	Cg-Vak Software Usa Inc	6/58	1/6
1422	4580	Halcyon Solutions, Inc.	2/60	1/4
1423	4580	Software Technology Inc	0/58	0/6
1424	4580	Bigcommerce, Inc.	0/57	0/7
1425	4580	Horizon Systems Inc	0/56	1/8
1426	4580	Blossom Solutions, Inc.	0/57	0/7
1427	4580	3edgeusagroup Llc	0/54	2/10
1428	4580	Neudesic, Llc	3/58	0/6
1429	4580	Adroit Software, Inc.	0/56	0/8
1430	4580	Yardi Systems, Inc	0/51	1/13
1431	4580	Dts, Inc.	0/45	0/19
1432	4621	Reputation.Com, Inc.	3/58	0/5
1433	4621	Xerox Business Services, Llc	1/49	1/14
1434	4621	Stratitude Inc.	2/57	1/6
1435	4621	Pandit View Software Llc	1/59	0/4
1436	4621	Adam Information Technologies, Llc	0/59	1/4
1437	4621	Erp And Erp Corp	5/50	13/13
1438	4621	Couchbase, Inc.	1/52	0/11
1439	4621	Hyland Software, Inc.	0/44	0/19
1440	4621	Z And A Infotek Corporation	5/59	2/4
1441	4621	Nous Infosystems Pvt. Ltd.	0/50	2/13
1442	4621	Highgate Hotels Lp	3/58	0/5
1443	4621	Integral Development Corporation	3/48	1/15
1444	4621	Hcentive, Inc.	2/49	0/14
1445	4621	Exusia, Inc.	1/52	0/11
1446	4621	Interglobe Technologies, Inc.	0/49	0/14
1447	4621	Hexaider Technologies Llc	2/55	0/8
1448	4687	Intergraph Corporation	1/53	1/9
1449	4687	Sepals Corporation	0/57	0/5
1450	4687	Precision Management Group, Inc.	3/50	1/12
1451	4687	Maestro Technologies,Inc	4/59	1/3
1452	4687	Dassault Systemes Solidworks Corporation	1/52	0/10
1453	4687	Xchanging Solutions (Usa) Inc.	4/59	0/3
1454	4687	Nityo Infotech Corp	7/57	0/5
1455	4687	Campus Management Corporation	1/50	0/12
1456	4687	Euclid Innovations Inc	6/61	0/1
1457	4687	World Joint Corporation	1/59	0/3
1458	4687	Divine It Services Llc	0/55	0/7
1459	4687	Sumo Logic, Inc.	0/55	0/7
1460	4687	Zenith Software Inc.	3/53	0/9
1461	4687	American Cybersystems, Inc.	2/62	-
1462	4687	Imatrix Corp	0/52	0/10
1463	4756	Acnovate Corporation	3/57	0/4
1464	4756	Skellig Automation Us Llc	10/58	0/3
1465	4756	Temenos Usa, Inc.	2/48	0/13
1466	4756	Watchguard Technologies, Inc.	0/57	0/4
1467	4756	Millenium Software Consulting, Llc	3/52	0/9
1468	4756	Assigncorp	0/54	0/7
1469	4756	Mpowertech Inc.	13/55	2/6
1470	4756	Arkrit Llc	1/60	0/1
1471	4756	Progress Software Corporation	6/49	3/12
1472	4812	Emergtech Business Solutions,Inc	4/59	0/1
1473	4812	Aclat, Inc.	1/55	0/5
1474	4812	Conviva, Inc.	0/47	0/13
1475	4812	Sdg Corporation	7/53	0/7
1476	4812	Nomis Solutions, Inc.	3/52	0/8
1477	4812	Ample It Services Llc	0/58	0/2
1478	4812	Mastech, Inc., A Mastech Holdings, Inc. Company	0/1	4/59
1479	4812	The Bsst Software Group D/B/A The Boston Group	2/46	0/14
1480	4812	Turn Inc.	2/49	0/11
1481	4812	Sarga Solutions Inc	4/56	0/4
1482	4812	Legend Solutions Llc	3/56	0/4
1483	4863	Quality Consulting, Inc.	0/59	-
1484	4863	Unicon International, Inc.	0/49	0/10
1485	4863	Software Ag Usa, Inc.	4/52	0/7
1486	4863	Trinuc Llc	0/54	1/5
1487	4863	Cybersoft Technologies, Inc.	0/54	0/5
1488	4863	Ameex Technologies Corp	1/59	-
1489	4863	Intune Systems Inc	0/56	0/3
1490	4863	The Evolvers Group, L.P.	3/54	0/5
1491	4863	Zodiac Solutions, Inc. [duns# 96-958-5384]	3/56	1/3
1492	4863	Graviton Consulting Services, Inc.	3/51	0/8
1493	4863	Ensymbios Inc	2/53	0/6
1494	4863	Objectnet Technologies, Inc	6/54	2/5
1495	4863	Heartflow, Inc.	1/53	2/6
1496	4863	Trilogy International, Inc.	4/54	3/5
1497	4863	Adaptive Planning, Inc.	1/52	0/7
1498	4863	Columbia Sussex Management Llc	5/51	1/8
1499	4863	Foursquare Labs, Inc.	2/56	0/3
1500	4930	Next Jump, Inc.	0/53	0/5
1501	4930	Sivees, Inc	3/53	0/5
1502	4930	Blue Canopy Group, Llc	3/53	0/5
1503	4930	Stefanini, Inc.	2/49	1/9
1504	4930	Talented It, Inc.	1/55	0/3
1505	4930	Shimento Inc.	4/55	2/3
1506	4930	Peoplecorp America Inc.	0/54	2/4
1507	4930	Informatic Technologies Inc	1/52	0/6
1508	4930	Recruiting Minds Inc.	1/56	0/2
1509	4930	It Convergence	10/50	0/8
1510	4930	Ramco Systems Corporation	0/55	0/3
1511	4930	Zedventures Inc.	0/53	0/5
1512	4930	Companion Professional Services, Llc	1/48	2/10
1513	4930	Bytefield	3/53	0/5
1514	4930	Doubleverify Inc.	9/41	1/17
1515	4930	Cherryroad Technologies Inc.	4/51	1/7
1516	4997	Revenue Solutions Inc.	0/48	0/9
1517	4997	Smallarc, Inc.	0/52	0/5
1518	4997	Recache, Inc.	3/57	-
1519	4997	Stroz Friedberg, Llc	5/51	0/6
1520	4997	Embtel, Inc.	10/54	1/3
1521	4997	Axelon Services Corporation	9/52	0/5
1522	4997	Cynosure Technologies, Llc	2/48	1/9
1523	4997	Tivo Inc.	2/38	1/19
1524	4997	Brightcove Inc.	2/49	0/8
1525	4997	Tsr Consulting Services, Inc.	3/38	1/19
1526	4997	Sbm Group, Inc	4/49	2/8
1527	4997	The Baer Group	10/54	1/3
1528	4997	Everyday Health, Inc.	5/45	2/12
1529	4997	Centrify Corporation	8/52	1/5
1530	4997	Lattice Engines, Inc.	6/44	0/13
1531	4997	Integrated Management Systems, Inc	5/48	0/9
1532	4997	Tekenergy Llc	0/53	0/4
1533	5068	Dolby Laboratories, Inc.	1/37	0/19
1534	5068	Sybase, Inc.	0/48	0/8
1535	5068	Drivestream, Inc.	2/48	0/8
1536	5068	Aeris Communications, Inc.	0/44	0/12
1537	5068	Ipc Systems, Inc.	4/44	1/12
1538	5068	Aptonet, Inc.	5/48	0/8
1539	5068	Sahi Softtech, Inc	1/52	0/4
1540	5068	Anchorfree, Inc.	1/38	1/18
1541	5068	Focuz Mindz, Inc.	6/56	-
1542	5068	Sim Infotech, Inc.	0/48	1/8
1543	5068	Nu Info Systems, Inc.	2/45	7/11
1544	5126	C3, Inc.	0/55	-
1545	5126	Enableit, Llc	3/55	-
1546	5126	Sarkit, Inc.	6/53	0/2
1547	5126	United Software Inc	1/51	0/4
1548	5126	Knowledge Builders, Inc.	11/47	0/8
1549	5126	Appdirect, Inc.	6/41	0/14
1550	5126	Ooyala Inc.	0/42	2/13
1551	5126	Vertex Consulting Inc.	1/42	1/13
1552	5126	Optimum Technology, Inc.	4/50	0/5
1553	5126	Stellar Software Network, Inc	3/45	1/10
1554	5126	S4 Consultants, Inc.	4/51	1/4
1555	5126	Ventech Solutions, Inc.	0/48	0/7
1556	5126	Techdigital Corporation	2/50	0/5
1557	5126	Gurus Infotech, Inc.	2/50	0/5
1558	5126	Sumtotal Systems, Inc.	2/48	0/7
1559	5126	Net Esolutions Corporation	2/51	1/4
1560	5126	Neteffects, Inc.	2/50	0/5
1561	5126	Aclara Technologies Llc	2/48	1/7
1562	5212	Cyrix Data Systems, Llc	0/51	0/3
1563	5212	Mazik Global Inc.	8/46	0/8
1564	5212	Anand Pag Inc	3/48	0/6
1565	5212	Simplex Info Systems, Inc	1/52	0/2
1566	5212	Sungard Ambit Llc	1/45	0/9
1567	5212	Advent Software, Inc.	0/42	1/12
1568	5212	Magna Infotech Ltd	1/49	0/5
1569	5212	Sparc Technologies, Inc.	4/47	0/7
1570	5212	Avant-Garde Solutions Ltd.	0/50	0/4
1571	5212	Tekvista, Inc	2/51	0/3
1572	5212	Open Access Technology International, Inc.	1/49	0/5
1573	5212	Octo Consulting Group, Inc.	1/50	0/4
1574	5212	Meridian Technologies, Inc	1/53	0/1
1575	5212	Bias Corporation	3/42	0/12
1576	5212	Isn Software Corporation	1/43	1/11
1577	5212	Saitech, Corp.	0/46	0/8
1578	5212	Aarkay Technologies Inc.	8/48	0/6
1579	5212	American Software Resources, Inc.	1/50	3/4
1580	5212	Ultimo Software Solutions Inc.	0/50	0/4
1581	5281	Maven, Inc.	6/49	0/4
1582	5281	Pisoft Inc.	0/46	0/7
1583	5281	Brightedge Technologies, Inc.	0/46	0/7
1584	5281	Pmg Global Corporation	3/47	0/6
1585	5281	Eclat Integrated Software Solutions, Inc.	1/45	0/8
1586	5281	Sharp Decisions, Inc.	2/47	0/6
1587	5281	Arch International Group Inc	0/51	0/2
1588	5281	Avenir Associates, Inc.	0/50	0/3
1589	5281	Sonus Networks, Inc.	6/42	0/11
1590	5281	Logic Bridge Inc.	2/48	1/5
1591	5281	Dreamworks Animation Llc	0/42	3/11
1592	5281	Yeti Technologies Llc, Dba	2/40	0/13
1593	5281	Pddn, Inc.	0/53	-
1594	5281	Spectraforce Technologies, Inc.	5/45	0/8
1595	5281	Pixar	0/36	0/17
1596	5281	Acacia Communications, Inc.	1/43	0/10
1597	5281	Burger King Corporation	0/50	0/3
1598	5281	Synergy Global Systems Inc	1/49	1/4
1599	5281	Sunsoft Services Inc	2/53	-
1600	5281	Nettlinx, Inc.	5/53	-
1601	5281	Trinet Hr Corporation	1/38	0/15
1602	5281	Datamatics Consultants Inc	1/48	0/5
1603	5281	Inabia Software & Consulting, Inc.	2/46	0/7
1604	5371	Rose International, Inc.	8/50	2/2
1605	5371	Cloud Epa, Llc	1/52	-
1606	5371	Syscons Corporation	4/48	0/4
1607	5371	Kyro4 Solutions, Inc.	0/52	-
1608	5371	Infotech Spectrum, Inc	1/48	0/4
1609	5371	Saiven Technologies Inc	0/52	-
1610	5371	Iconnect Lc	2/46	0/6
1611	5371	Aerohive Networks, Inc.	4/40	1/12
1612	5371	Jago Link, Inc.	0/50	0/2
1613	5371	Infisunergy It, Inc	7/49	0/3
1614	5371	Three Sigma Software Inc.	4/40	4/12
1615	5371	Tmw Systems, Inc.	0/37	0/15
1616	5371	Apex-2000 Inc	3/51	0/1
1617	5453	Global Information Services, Inc.	5/36	3/15
1618	5453	I Net Software Technologies, Inc.	2/44	0/7
1619	5453	Ssn Group Llc	1/38	3/13
1620	5453	Cloudquest Technologies, Llc	0/46	0/5
1621	5453	Eok Technologies, Inc.	0/48	0/3
1622	5453	Tracfone Wireless, Inc.	1/42	0/9
1623	5453	Yash Solutions, Llc	3/50	0/1
1624	5453	Netrocon Inc	5/49	0/2
1625	5453	Global Soft Tech Inc.	5/51	-
1626	5453	Udemy, Inc.	1/39	0/12
1627	5453	Turningpoint Global Solutions Llc	1/44	0/7
1628	5453	Astograph Inc	6/51	-
1629	5526	Ibm Global Systems, Inc.	4/50	-
1630	5526	Lorven Technologies, Inc.	1/47	1/3
1631	5526	Numerix Llc	0/44	0/6
1632	5526	Alpine Electronics Research Of America, Inc.	2/44	0/6
1633	5526	Instart Inc.	1/44	0/6
1634	5526	Sky Technologies, Llc	0/46	0/4
1635	5526	Cynosoft Solutions, Inc.	2/48	0/2
1636	5526	Silver Spring Networks, Inc.	2/40	0/10
1637	5526	Trn Systems, Inc.	6/46	0/4
1638	5526	Alertenterprise, Inc	0/47	0/3
1639	5526	Universal System Technologies, Inc.	0/44	0/6
1640	5595	Software Specialists, Inc.	5/40	1/9
1641	5595	Gs Soft Inc	0/45	0/4
1642	5595	Syspro Technologies, Inc.	2/42	1/7
1643	5595	9m Solutions, Inc.	1/43	0/6
1644	5595	Spi Research And Development Services, Llc	0/46	1/3
1645	5595	Compulink Management Center, Inc.	1/33	7/16
1646	5595	Ulab Inc	4/48	0/1
1647	5595	Persistent Telecom Solutions Inc.	4/46	0/3
1648	5595	Virtual Systems Solutions, Inc.	2/47	0/2
1649	5595	Ikasystems Corporation	8/49	-
1650	5595	Crossvale, Inc.	3/44	0/5
1651	5595	Schoeneckers, Inc.	2/41	2/8
1652	5595	Kumaran Systems, Inc.	5/47	0/2
1653	5595	Securus Technologies Inc	1/40	3/9
1654	5595	Kbts Technologies, Inc.	2/42	0/7
1655	5595	Rover Resources, Inc	0/45	0/4
1656	5595	Agile Global Solutions, Inc	0/44	2/5
1657	5595	Avalara, Inc.	1/42	0/7
1658	5595	Feather Technologies, Inc.	2/43	0/6
1659	5595	Optimizely, Inc.	0/41	0/8
1660	5595	Onesource Virtual Hr, Inc.	2/26	0/23
1661	5595	Lorven Applications Inc	1/43	1/6
1662	5595	Macy's Systems And Technology	0/13	1/36
1663	5595	Refulgent Technologies Inc.	1/42	2/7
1664	5700	Infoweb Systems, Inc.	0/43	0/5
1665	5700	Terra Information Group, Inc	4/44	3/4
1666	5700	Greycell Labs Inc	2/48	-
1667	5700	Cdi Solutions, Inc	3/40	1/8
1668	5700	Checkfree Services Corporation	0/23	0/25
1669	5700	Quadratic Systems, Inc.	0/41	0/7
1670	5700	Hi-Tech Solutions, Inc.	0/41	0/7
1671	5700	Cigniti, Inc.	2/33	0/15
1672	5700	Think Big Solutions, Inc.	5/44	0/4
1673	5700	Kaygen, Inc.	2/42	0/6
1674	5700	Clicksoftware, Inc.	2/33	2/15
1675	5700	Decitech Consulting, Inc.	5/46	0/2
1676	5700	Jm Information Systems, Llc	0/41	0/7
1677	5700	Universities Space Research Association	5/48	-
1678	5700	Smule, Inc.	2/38	1/10
1679	5700	Software Solutions Group Inc	3/47	0/1
1680	5700	Course Hero, Inc.	2/43	0/5
1681	5700	Agitech Solutions, Inc	0/46	0/2
1682	5700	Ace Technologies, Inc.	1/48	-
1683	5791	Harmonic, Inc.	4/37	1/10
1684	5791	Covey Software Systems, Inc	0/46	0/1
1685	5791	Egain Corporation	1/40	1/7
1686	5791	Inspur Worldwide Services, Ltd	2/42	0/5
1687	5791	Eis Technologies, Inc.	2/41	0/6
1688	5791	Convergent Consulting, Inc.	3/45	0/2
1689	5791	K-Source Inc.	0/41	1/6
1690	5791	Nutech Systems, Inc.	0/44	0/3
1691	5791	Chain-Sys Corporation	2/43	0/4
1692	5791	Libertycom Llc	1/39	0/8
1693	5791	Nice Systems Inc.	1/36	0/11
1694	5791	Lookout, Inc.	0/30	1/17
1695	5791	Orbit Systems Inc.	1/44	0/3
1696	5791	Enterprise Solutions, Inc.	4/46	0/1
1697	5791	Smartek21 Llc	0/45	0/2
1698	5791	Am Logic Corporation	5/42	0/5
1699	5791	Questsoft Solutions Inc	4/43	0/4
1700	5791	Radiant Logic, Inc.	4/41	0/6
1701	5896	Info-Matrix Corporation	5/42	0/4
1702	5896	Exponentia Us Inc	3/40	0/6
1703	5896	Proteam, Llc	5/44	0/2
1704	5896	It Resonance Inc.	4/40	0/6
1705	5896	Roundarch Isobar, Inc.	1/38	1/8
1706	5896	Meltwater News Us1 Inc.	2/32	0/14
1707	5896	T3c, Inc. Dba Retail Solutions, Inc.	1/43	0/3
1708	5896	Invexer Technology, Inc.	1/40	0/6
1709	5896	Saba Software Inc.	1/40	1/6
1710	5896	Zealtech, Inc.	4/44	0/2
1711	5896	Sanpro Technologies, Inc	2/42	4/4
1712	5896	Vayu Inc	0/39	0/7
1713	5896	Kbace Technologies, Inc.	11/37	0/9
1714	5896	Zieta Technologies, Llc	3/43	0/3
1715	5896	Fabit Corp	1/46	-
1716	5896	Speridian Technologies A.K.A Karma Consulting Svc	-	3/46
1717	5982	Sunfix Technologies, Inc	5/43	2/2
1718	5982	Systemart Llc	5/40	0/5
1719	5982	Orbitz Worldwide	0/34	0/11
1720	5982	Sodexo, Inc.	0/34	0/11
1721	5982	Svt, Inc	2/38	1/7
1722	5982	Ingrain Systems Inc	1/45	-
1723	5982	Prime Solutions, Inc.	0/40	0/5
1724	5982	Arka Solutions, Inc.	0/43	0/2
1725	5982	Accel International, Inc.	0/44	0/1
1726	5982	Pegasus Knowledge Solutions, Inc.	0/39	0/6
1727	5982	Advansoft Worldwide Inc	6/45	-
1728	5982	Syncsort, Inc.	0/38	0/7
1729	5982	Schrdinger, Inc.	0/40	0/5
1730	5982	Halvik Corp	4/39	0/6
1731	5982	Southeastern Data Cooperative Inc	3/40	1/5
1732	5982	Vecna Technologies, Inc.	0/36	1/9
1733	5982	Innosoul Inc	0/45	-
1734	5982	Ntelicor, Lp	2/40	0/5
1735	6096	3h Systems Llc	1/42	0/2
1736	6096	Aurotech, Inc	3/37	0/7
1737	6096	Insyst Inc	6/40	0/4
1738	6096	Travelclick Inc	0/32	0/12
1739	6096	Kargo Global, Inc.	1/36	1/8
1740	6096	Convene Inc	1/31	5/13
1741	6096	Priserve Consulting Inc	4/39	0/5
1742	6096	Sure Tech Services, Inc.	0/31	1/13
1743	6096	Sql Data Solutions, Inc.,	0/37	1/7
1744	6096	Qtech Consulting Group, Inc.	1/42	0/2
1745	6096	Ark Solutions, Inc.	1/42	0/2
1746	6096	Khoj Information Technology, Inc.	0/41	0/3
1747	6096	Mindspark Interactive Network, Inc.	0/39	0/5
1748	6096	Cyber Group Inc.	6/40	0/4
1749	6096	Strata Solutions Inc.	0/43	0/1
1750	6096	Moneygram International, Inc.	2/39	0/5
1751	6096	Teletracking Technologies, Inc.	0/39	0/5
1752	6096	Spri Partners, Llc.	2/36	2/8
1753	6096	24/7 Customer, Inc.	1/40	1/4
1754	6096	Candor Group Inc.	0/38	1/6
1755	6096	Amg Technology Llc	4/42	0/2
1756	6096	Bitech, Inc.	1/38	2/6
1757	6096	Phunware, Inc.	1/34	1/10
1758	6096	Ab Star Group	7/44	-
1759	6096	Wise Men Consultants Inc.	4/43	0/1
1760	6214	Echelon It Inc	3/43	-
1761	6214	Aurionpro Solutions, Inc.	1/34	0/9
1762	6214	Cross Commerce Media, Inc.	2/32	0/11
1763	6214	Blueline Software Services Inc.	1/43	-
1764	6214	Patientkeeper, Inc.	1/37	0/6
1765	6214	Avi Networks, Inc.	3/37	0/6
1766	6214	Rulesware, Llc	0/35	1/8
1767	6214	Unified Business Technologies, Inc	4/28	3/15
1768	6214	Ellucian Company, Lp	0/30	1/13
1769	6214	Insight Direct Usa, Inc.	1/37	0/6
1770	6214	B2b Infosys, Inc.	3/41	0/2
1771	6214	Cch Incorporated	1/38	0/5
1772	6214	Mobitv, Inc.	0/37	0/6
1773	6214	Cyber Sphere Llc	0/37	1/6
1774	6214	Orion Systems Integrators, Inc	-	6/43
1775	6214	System Edge (Usa) Llc	7/40	0/3
1776	6214	Shibram Banerjee, Inc.	3/38	1/5
1777	6324	Alliant Technologies, Llc	0/37	0/5
1778	6324	Ace Info Solutions, Inc.	2/39	0/3
1779	6324	Espryt, Inc.	0/42	-
1780	6324	East West Systems Inc.	0/34	1/8
1781	6324	Amko Software Solutions, Inc.	0/38	0/4
1782	6324	Aetea Information Technology, Inc.	2/34	1/8
1783	6324	Infobuilders Inc	1/40	0/2
1784	6324	Liveramp, Inc.	6/41	1/1
1785	6324	Mezocliq Llc	0/32	1/10
1786	6324	Aspect Software, Inc.	0/37	0/5
1787	6324	Globalsoft Solutions Inc	0/40	0/2
1788	6324	Hitachi Solutions America, Ltd.	2/28	1/14
1789	6324	Qualitree Inc	7/40	1/2
1790	6324	Blackbaud, Inc.	4/37	0/5
1791	6324	Next Sphere Technologies, Inc.	1/34	0/8
1792	6324	Camp Systems International Inc.	2/37	0/5
1793	6324	Goldline Technologies Inc.	2/41	0/1
1794	6324	Rapid7, Llc	2/34	0/8
1795	6324	Advance Digital Systems Inc	3/37	0/5
1796	6324	Sanveo, Inc.	0/37	0/5
1797	6324	Ruha Technologies, Inc.	0/37	0/5
1798	6324	Knack Systems Llc	0/39	0/3
1799	6441	Xactly Corporation	2/31	2/10
1800	6441	Akraya Inc	0/40	0/1
1801	6441	Elite Solutions, Inc.	7/36	0/5
1802	6441	Arcadia Solutions Llc	1/29	0/12
1803	6441	Palatial Technologies Inc	0/35	0/6
1804	6441	Bazaarvoice, Inc.	1/35	1/6
1805	6441	Nivasoft, Inc	0/32	0/9
1806	6441	Rocket Fuel, Inc.	0/31	1/10
1807	6441	Hance Incorporated	2/41	-
1808	6441	Eifer It, Llc	1/40	0/1
1809	6441	Korcomptenz, Inc.	1/41	-
1810	6441	Fundtech Corporation	0/35	0/6
1811	6441	Ventera Corporation	3/31	2/10
1812	6441	Leapfrog Systems, Inc.	0/40	0/1
1813	6441	Seeburger, Inc.	4/36	1/5
1814	6441	Vedainfo, Inc.	2/36	0/5
1815	6441	Neoage Services Llc	0/34	1/7
1816	6441	Nowcom Corporation	4/36	0/5
1817	6441	Ndvor Solutions Llc	2/38	0/3
1818	6441	3a Soft Inc.	2/34	1/7
1819	6441	Radise International	5/36	0/5
1820	6575	Inspira, Inc.	1/40	-
1821	6575	Emeteors Inc	1/40	-
1822	6575	Bizit Consultants, Inc.	3/38	0/2
1823	6575	Scopely, Inc.	0/32	0/8
1824	6575	Amazech Solutions Llc	3/36	0/4
1825	6575	Citco Technology Management Incorporated	1/32	1/8
1826	6575	Sunsoft Solutions, Inc.	2/39	0/1
1827	6575	Dimension Consulting	0/36	0/4
1828	6575	Ibis Tech International Corp	0/40	-
1829	6575	Central Dynamics Corporation	5/38	0/2
1830	6575	Public Consulting Group, Inc.	0/34	0/6
1831	6575	Trellis Technology Solutions, Llc	1/38	0/2
1832	6575	Tekpros Inc	1/38	2/2
1833	6575	Egnyte, Inc.	0/31	0/9
1834	6684	Trading Technologies International, Inc.	2/31	0/8
1835	6684	Compuware Corporation	1/21	17/18
1836	6684	Credent Technologies Llc	2/36	0/3
1837	6684	Rayonsoft Technologies Inc.	0/36	0/3
1838	6684	Geonine Inc.	5/39	-
1839	6684	Mindbody, Inc.	0/35	0/4
1840	6684	One Network Enterprises, Inc.	0/31	0/8
1841	6684	Xinthe Technologies Pvt Lt	1/37	1/2
1842	6684	Blackboard Inc.	3/36	0/3
1843	6684	Greenbay Infotech Llc	1/38	0/1
1844	6684	Storm8, Inc.	4/31	0/8
1845	6684	Xtream It People Inc.	2/36	1/3
1846	6684	Maq Llc	1/25	2/14
1847	6684	Saturn Infotech Inc	8/38	0/1
1848	6684	Divihn Integration Inc.	2/37	1/2
1849	6684	Casenet, Llc	4/36	0/3
1850	6684	Appirio Inc.	0/38	1/1
1851	6811	Dunkin' Brands, Inc.	1/31	2/7
1852	6811	Elektrobit Automotive Americas Inc.	1/30	0/8
1853	6811	Insigma Inc.	1/36	0/2
1854	6811	Cybertech Systems And Software, Inc.	0/36	1/2
1855	6811	Coalescent Systems Llc	5/33	1/5
1856	6811	Memsql, Inc.	1/34	0/4
1857	6811	Excentus Corporation	2/32	0/6
1858	6811	Guru It Solutions, Inc	5/34	1/4
1859	6811	Actionet, Inc.	4/34	0/4
1860	6811	Athreya, Inc	0/33	0/5
1861	6811	Nec Corporation Of America	0/36	0/2
1862	6811	Teamsoft Technologies, Llc	3/35	1/3
1863	6811	Vendavo, Inc.	0/33	1/5
1864	6811	Tecsource International Llc	3/36	0/2
1865	6811	Daman Incorporated	0/22	1/16
1866	6811	Chetu, Inc.	3/36	1/2
1867	6811	Intelligent Solutions Group Corp	3/30	1/8
1868	6811	Fynbosys Inc	2/37	0/1
1869	6811	Cbs Corporate Services Inc.	0/30	0/8
1870	6811	Ionidea Inc	1/30	0/8
1871	6951	Congruent Solutions Inc.	6/37	-
1872	6951	American Megatrends, Inc.	0/23	0/14
1873	6951	Sirius Sps, Llc	1/37	-
1874	6951	Infonero Inc	4/33	2/4
1875	6951	Robustware Inc.	1/35	0/2
1876	6951	Pragiti, Inc.	1/30	0/7
1877	6951	Mercury Technology Group, Inc.	2/22	0/15
1878	6951	Richrelevance, Inc.	0/33	0/4
1879	6951	Silver Peak Systems, Inc.	0/32	1/5
1880	6951	Electronic Arts Tiburon	0/23	0/14
1881	6951	Comity Designs Inc.	0/34	0/3
1882	6951	Lara Tekies Inc	0/33	0/4
1883	6951	Thoughtfocus Technologies	3/30	0/7
1884	6951	Chartboost, Inc.	2/30	0/7
1885	6951	Sage Software, Inc.	1/32	0/5
1886	6951	Ak Systems, Inc.	0/30	0/7
1887	6951	Novedea Systems, Inc.	2/31	0/6
1888	6951	Vensiti Inc	2/32	0/5
1889	6951	Agilone, Inc.	0/31	1/6
1890	6951	Clerysys, Inc.	4/36	0/1
1891	6951	V2solutions, Inc.	1/32	0/5
1892	6951	Right Click Systems, Llc	0/32	0/5
1893	6951	Maven Companies, Inc.	0/37	-
1894	6951	Digital River, Inc.	0/31	0/6
1895	6951	Dicentral Corporation	0/30	0/7
1896	6951	Resource Search Company, Inc.	5/34	0/3
1897	7085	Netronome Systems, Inc.	1/26	0/10
1898	7085	Techspace Solutions Inc	1/31	1/5
1899	7085	Dcm Limited	0/32	0/4
1900	7085	Gunjan Cutting Edge Solutions, Inc	1/30	0/6
1901	7085	Advit Consulting Inc	2/36	-
1902	7085	Krypt, Inc.	0/36	-
1903	7085	Pozent Corporation	2/34	0/2
1904	7085	Zgage Inc.	1/34	0/2
1905	7085	Thales E-Security, Inc.	1/26	1/10
1906	7085	Loginsoft Consulting Llc	2/33	0/3
1907	7085	The Wellspring Group Inc.	0/30	1/6
1908	7085	Gamestop Corp.	2/32	0/4
1909	7085	Net Matrix Solutions, Inc.	2/35	0/1
1910	7085	Delight Consulting Services Llc.	0/31	0/5
1911	7085	Polaris Associates, Inc.	3/31	0/5
1912	7085	Pamedge, Inc.	0/32	1/4
1913	7085	S Cube Soft, Inc.	2/32	0/4
1914	7085	Synergyquad Inc.	2/33	1/3
1915	7085	Sage Group Consulting, Inc.	1/30	0/6
1916	7085	Technology Partners, Inc.	1/31	0/5
1917	7225	Url Systems, Inc.	2/34	0/1
1918	7225	Anjana Software Solutions, Inc.	1/25	0/10
1919	7225	The United Solutions Group Inc.	7/32	1/3
1920	7225	Collaborative Systems, Inc.	0/34	0/1
1921	7225	Serviont Global Solutions Inc	4/34	0/1
1922	7225	Cyberbest Technology, Inc.	0/32	0/3
1923	7225	Xceed Technologies, Inc.	0/34	0/1
1924	7225	Revinate, Inc.	1/33	0/2
1925	7225	Technology Ventures Llc	0/30	0/5
1926	7225	Information Resource Group, Inc.	1/29	1/6
1927	7225	Oss, Inc.	2/26	1/9
1928	7225	Multivision Inc.	0/34	1/1
1929	7225	Grand Circle, Llc	2/30	1/5
1930	7225	Vdart Inc	1/27	0/8
1931	7225	Excelto Solutions, Llc.	0/29	2/6
1932	7225	Auritas, Llc	0/28	0/7
1933	7225	Backoffice Associates, Llc	3/35	-
1934	7225	Suswee Infotech Corp	5/29	0/6
1935	7225	Waltech, Inc.	4/30	0/5
1936	7225	Hermes Technologies Inc	0/32	0/3
1937	7225	Ibasis, Inc.	0/28	0/7
1938	7225	Excel Global Solutions Inc.	8/35	-
1939	7225	Sanvy Systems Inc	0/32	1/3
1940	7225	Cpsg Partners, Llc	5/27	0/8
1941	7225	Ains, Inc.	2/29	1/6
1942	7225	Amber Road Inc	1/32	0/3
1943	7225	Radiant Systems, Inc.	5/34	0/1
1944	7373	Scribd, Inc.	3/28	0/6
1945	7373	Lex Nimble Solutions Inc Dba Ilbsg,Inc	-	4/34
1946	7373	Computer Power Group Inc	0/31	0/3
1947	7373	Ardent Erp Solutions, Inc.	3/30	1/4
1948	7373	Comsol, Inc.	1/31	0/3
1949	7373	Presidio Networked Solutions, Inc.	0/24	1/10
1950	7373	Sterlite Software Usa, Inc.	1/33	0/1
1951	7373	Wyndham Vacation Ownership, Inc.	0/30	1/4
1952	7373	Quantum Infotech Inc.	3/29	2/5
1953	7373	Pearlsoft Solutions Incorporated	0/26	0/8
1954	7373	Credit One Bank	0/34	-
1955	7373	Integration Appliance, Inc.	5/27	0/7
1956	7373	Scivantage, Inc.	4/31	1/3
1957	7373	Niit Technologies Inc.	0/29	0/5
1958	7373	Sdilogic, Inc.	0/31	0/3
1959	7373	Professional Consulting, Inc	3/28	0/6
1960	7373	Next Level Business Services, Inc.	3/34	-
1961	7373	Intertrust Technologies Corporation	2/28	0/6
1962	7373	Mcaconnect, Llc	6/29	2/5
1963	7373	Ubisoft Inc.	1/19	1/15
1964	7540	Ibiz Software, Inc.	0/26	0/7
1965	7540	Dsfederal, Inc.	3/30	0/3
1966	7540	Dnanexus, Inc.	0/24	0/9
1967	7540	Airlines Reporting Corporation	4/26	1/7
1968	7540	Sunplus Data Group	1/31	0/2
1969	7540	Calpion, Inc.	2/27	2/6
1970	7540	Alpha Consulting Corporation	1/26	0/7
1971	7540	Minerva Networks, Inc	0/26	0/7
1972	7540	Qsi Management Llc	1/28	2/5
1973	7540	Gsr Technologies Inc.	0/28	0/5
1974	7540	U.S.Interactive Corp ( Delaware)	0/32	0/1
1975	7540	Mozilla Corporation	0/27	1/6
1976	7540	Entellects Corporation	2/33	-
1977	7540	Trinity Technology Group, Inc	0/29	0/4
1978	7540	Proactive Technical Services, Inc.	0/24	1/9
1979	7713	Nexon America, Inc.	1/18	0/14
1980	7713	Ost, Inc.	1/30	0/2
1981	7713	Sun Power Consulting Llc	2/28	0/4
1982	7713	Enterprise Pals, Inc.	2/27	0/5
1983	7713	Inforeem, Inc.	1/25	1/7
1984	7713	Qvc, Inc.	4/30	0/2
1985	7713	Tech One Staffing, Llc	1/32	-
1986	7713	Tangoe Inc	6/28	1/4
1987	7713	Transaction Network Services, Inc.	0/25	0/7
1988	7713	Tech Data Corporation	3/24	3/8
1989	7713	Labvantage Solutions, Inc.	0/24	0/8
1990	7713	Smartbridge, Llc	0/27	0/5
1991	7713	Wns North America Inc.	0/30	0/2
1992	7713	Athoc, Inc.	0/27	0/5
1993	7713	Computer Consultants Of America, Inc.	1/29	1/3
1994	7713	Linedata Services (Bft), Inc.	0/11	4/21
1995	7713	Infovision Consultants, Inc.	-	4/32
1996	7713	Central Business Solutions, Inc	2/27	1/5
1997	7713	Revenue Analytics, Inc.	0/31	0/1
1998	7713	Lions Gate Entertainment Corp	0/23	1/9
1999	7713	Cambridge Systematics, Inc.	1/27	0/5
2000	7713	Eyork Consulting Inc.	0/25	0/7
2001	7713	Nextrow, Inc.	0/25	0/7
2002	7713	X.Commerce	0/19	1/13
2003	7713	Fortira Inc	1/24	1/8
2004	7713	Centurytel Service Group, Llc	3/30	0/2
2005	7713	Interactive Data Corporation	5/28	0/4
2006	7713	Berean Group International, Inc.	0/30	0/2
2007	7713	Open Systems International, Inc.	0/27	0/5
2008	7713	Processweaver, Inc.	0/28	0/4
2009	7713	Bpa Technologies, Inc.	0/24	1/8
2010	7905	Sps Commerce, Inc.	3/25	0/6
2011	7905	Softlabz Corporation	0/27	0/4
2012	7905	It Transformers, Inc.	1/24	2/7
2013	7905	Integral Consulting Services, Inc.	0/25	0/6
2014	7905	V Group Inc	1/30	0/1
2015	7905	Aditi Llc	0/31	-
2016	7905	Corptax, Inc.	0/25	0/6
2017	7905	Telcobuy.Com Llc	2/22	0/9
2018	7905	Trueblue, Inc.	0/27	1/4
2019	7905	Reflektion, Inc.	1/26	0/5
2020	7905	Hearsay Social, Inc.	0/21	1/10
2021	7905	Econsultants Inc.	3/26	0/5
2022	7905	Bluesoft Solutions Llc	2/31	-
2023	7905	Irislogic, Inc.	1/27	1/4
2024	7905	Geomatrix Software Services, Inc.	2/29	0/2
2025	7905	314e Corporation	1/27	0/4
2026	7905	Dataguise, Inc.	2/23	5/8
2027	7905	Freudenberg It Lp	0/15	0/16
2028	8076	Openet Telecom, Inc.	2/28	0/2
2029	8076	Blackline Systems, Inc.	1/27	0/3
2030	8076	Adap.Tv, Inc.	0/30	-
2031	8076	Lithium Technologies, Inc.	1/28	0/2
2032	8076	Palo Alto Research Center, Inc.	0/30	-
2033	8076	Radiss Tech Services Inc.	1/28	1/2
2034	8076	Trustwave Holdings Inc.	1/27	0/3
2035	8076	Internet Truckstop	2/24	5/6
2036	8076	Trinus Corporation	1/26	0/4
2037	8076	Canvas Infotech, Inc.	0/27	0/3
2038	8076	Hedvig, Inc.	3/22	0/8
2039	8076	Centroid Systems, Inc.	0/27	2/3
2040	8076	Sensormatic Electronics, Llc	3/26	0/4
2041	8076	Outsource Research Consulting, Inc.	4/27	0/3
2042	8076	C&T Information Technology Consulting, Inc	2/24	0/6
2043	8076	Matchpoint Solutions	0/30	-
2044	8076	Cenit North America, Inc.	1/25	0/5
2045	8076	Universal Business Solutions, Inc.	2/29	0/1
2046	8076	Sra International, Inc.	0/25	0/5
2047	8076	Tentek, Inc.	2/26	0/4
2048	8076	Visionsoft International Inc	0/15	0/15
2049	8076	Digital Technology Solutions Llc.	0/22	1/8
2050	8076	Vestmark, Inc.	1/29	0/1
2051	8076	Envisage Information Systems, Llc	0/27	0/3
2052	8076	Int Technologies, Llc	0/26	0/4
2053	8076	Comptech Associates Inc.	0/30	-
2054	8076	Yash Creations, Inc.	0/26	0/4
2055	8076	Enstoa, Inc.	2/27	0/3
2056	8076	1 Way Solutions, Inc.	4/27	0/3
2057	8076	Parsetek Inc	2/28	0/2
2058	8076	Bullhorn, Inc.	1/25	0/5
2059	8076	Empirix, Inc.	0/24	0/6
2060	8076	Personify, Inc.	0/26	0/4
2061	8076	Actiontec Electronics, Inc.	1/22	0/8
2062	8076	Syscom Technologies, Inc	4/24	0/6
2063	8076	Softtek Integration Systems, Inc.	1/18	1/12
2064	8076	Wintek Solutions, Inc.	0/30	-
2065	8076	Technisar Solutions Inc.	0/29	1/1
2066	8076	Jobvite, Inc.	1/24	0/6
2067	8271	Arete Systems, Inc.	16/24	1/5
2068	8271	Compnova	0/22	1/7
2069	8271	Sugarcrm, Inc.	0/21	0/8
2070	8271	Gurucul Solutions, Llc	0/28	0/1
2071	8271	Unique Comp, Inc.	1/23	0/6
2072	8271	Blue Sky Studios, Inc.	0/19	0/10
2073	8271	Viewsoft Inc.	0/17	2/12
2074	8271	Consulting Professionals, Llc	1/25	0/4
2075	8271	Semanticbits, Llc	0/27	0/2
2076	8271	Instrumental Services, Inc.	2/29	-
2077	8271	Bluware, Inc.	0/24	0/5
2078	8271	Analytics Quotient Inc.	0/27	0/2
2079	8271	Spectrum Logix Inc	0/24	0/5
2080	8271	Affirma Consulting Llc	5/28	0/1
2081	8271	Cognilytics, Inc.	2/23	0/6
2082	8271	Usa Gateway Inc	8/29	-
2083	8271	Strata Decision Technology, Llc	0/21	0/8
2084	8271	Sahasra Technologies Corporation	0/29	-
2085	8271	Leeyo Software, Inc	1/25	0/4
2086	8271	Blue Heron Consulting Corporation	0/22	0/7
2087	8271	Five9, Inc.	1/20	1/9
2088	8271	Amplify Education, Inc.	0/24	0/5
2089	8271	Dfuse Technologies, Inc	0/26	0/3
2090	8271	Sysco Corporation	0/27	0/2
2091	8271	Bcd Travel Usa Llc	7/29	-
2092	8491	Universal Software Corporation	2/28	-
2093	8491	Entelli Consulting Llc	3/24	0/4
2094	8491	Xperttech, Inc.	6/27	0/1
2095	8491	Ecenta America, Inc.	4/26	0/2
2096	8491	Sri Infotech, Inc.	0/28	-
2097	8491	Science Applications International Corporation	1/25	0/3
2098	8491	Chateck, Inc.	0/24	1/4
2099	8491	Eone Infotech Llc	3/21	0/7
2100	8491	Equilar, Inc.	1/24	0/4
2101	8491	Solutions Delivery Inc	0/23	0/5
2102	8491	Metasense, Inc.	1/27	0/1
2103	8491	Icon Solutions, Inc.	1/25	0/3
2104	8491	Jaitra Inc	3/25	1/3
2105	8491	First Derivatives Us Inc	1/23	1/5
2106	8491	Z-Axis Tech Solutions, Inc.	1/26	0/2
2107	8491	Agile Health Technologies, Inc.	0/21	0/7
2108	8491	Sky Bridge Global, Inc.	1/28	-
2109	8491	Icrossing Inc.	1/26	0/2
2110	8491	Velocloud Networks, Inc.	2/26	0/2
2111	8491	Aleks Corporation	5/23	1/5
2112	8491	Sequent, Inc.	0/23	1/5
2113	8491	Explicit Systems Usa, Inc.	0/26	0/2
2114	8491	Deem, Inc.	7/23	0/5
2115	8491	Information Builders Inc.	1/20	2/8
2116	8491	Egb Systems And Solutions Inc	1/28	-
2117	8715	Advanced Software Systems, Inc.	0/21	0/6
2118	8715	Technocrats Domain, Inc.	0/22	1/5
2119	8715	Techgurus Consulting, Inc.	4/27	-
2120	8715	Saphire Solutions Inc	1/23	1/4
2121	8715	Astre Consulting Services, Inc.	1/24	0/3
2122	8715	Deegit, Inc.	1/25	0/2
2123	8715	Principle Solutions Group, Llc	0/25	0/2
2124	8715	Wizcom Corporation	7/27	-
2125	8715	Clarabridge, Inc.	3/25	0/2
2126	8715	Infovista Corporation	3/22	1/5
2127	8715	Taser International, Inc.	1/27	-
2128	8715	Orion Health, Inc.	1/21	0/6
2129	8715	Zenimax Media Inc.	0/20	0/7
2130	8715	Fortis Talent, Llc	1/26	0/1
2131	8715	Tideworks Technology, Inc.	7/22	0/5
2132	8715	Cybernet Solutions Inc.	0/23	0/4
2133	8715	Advanced Technology Innovation Corporation	1/23	0/4
2134	8715	3i People, Inc.	0/22	1/5
2135	8715	Astute Business Solutions	1/27	-
2136	8715	Host Analytics, Inc.	2/20	1/7
2137	8715	Universal Cable Holdings	2/24	0/3
2138	8715	Urban Science Applications, Inc.	0/20	0/7
2139	8715	Riskspan, Inc.	2/27	-
2140	8715	Sysarch, Inc.	2/24	0/3
2141	8715	Nleague Services, Inc.	1/27	-
2142	8715	Invenger Technologies, Inc.	2/22	2/5
2143	8929	Smartinsight, Llc	0/24	0/2
2144	8929	Bave Technologies, Inc.	4/22	0/4
2145	8929	End-To-End Analytics, Llc	1/23	0/3
2146	8929	Avnil Llc	3/26	-
2147	8929	Rangam Consultants Inc.	0/23	0/3
2148	8929	Codeobjects, Inc.	1/23	0/3
2149	8929	Gopa It Consultants Inc.	4/19	1/7
2150	8929	Criterion Software, Llc	4/23	1/3
2151	8929	Amnet New York, Inc.	0/23	0/3
2152	8929	Lg Associates, Inc.	1/26	-
2153	8929	1010data Services Llc	0/20	0/6
2154	8929	Corporate Biz Solutions, Inc.	1/23	1/3
2155	8929	Idc Technologies, Inc.	1/26	-
2156	8929	Innovtech Inc	1/22	1/4
2157	8929	Switchlane Inc.	2/23	0/3
2158	8929	George Ventures Llc	1/23	0/3
2159	8929	Baywood Hotels, Inc.	2/26	-
2160	8929	Kitware, Inc.	0/20	0/6
2161	8929	Nuware Technology Corp	2/24	0/2
2162	8929	Mediaocean, Llc	1/26	-
2163	8929	Alpha Synopsys, Inc	0/24	0/2
2164	8929	Msg Global Solutions, Inc.	0/19	0/7
2165	8929	Teoco Corporation	1/19	1/7
2166	8929	Ctis, Inc.	1/23	0/3
2167	8929	Thesys Technologies, Llc	3/26	-
2168	8929	Hi-Rez Studios, Inc.	1/22	0/4
2169	8929	Tej Solutions Inc.	3/22	0/4
2170	9187	Copper Mobile, Inc	0/22	0/3
2171	9187	Velocity Technology Solutions, Inc.	2/23	0/2
2172	9187	Zones, Inc.	2/18	1/7
2173	9187	Filemaker, Inc.	2/19	0/6
2174	9187	Compu-Vision Consulting, Inc.	1/20	1/5
2175	9187	Inficare, Inc.	2/25	-
2176	9187	Healthcaresource Hr Inc.	1/24	0/1
2177	9187	Idt Corporation	0/23	0/2
2178	9187	Radiant Technologies Inc	2/21	1/4
2179	9187	Tek-Sources, Inc.	3/23	0/2
2180	9187	Caci-Iss Inc.	4/24	0/1
2181	9187	Judge Software Professionals Inc	0/20	1/5
2182	9187	Lodestar Systems Inc	0/21	1/4
2183	9187	Emetric Llc	1/23	0/2
2184	9187	Technocentra, Inc.	0/22	1/3
2185	9187	Nb Consultants, Inc.	0/19	1/6
2186	9187	Paymetric, Inc.	1/16	0/9
2187	9187	Select Source International	0/22	1/3
2188	9187	Taj Technologies, Inc.	3/20	0/5
2189	9187	Adoresoft Corporation	0/22	0/3
2190	9187	Cypress Global Services, Inc.	1/22	0/3
2191	9187	Sap Global Marketing, Inc.	0/21	0/4
2192	9187	Clinical Data Solution, Llc	0/21	0/4
2193	9187	Enterprise Consulting Services, Inc.	1/25	-
2194	9187	Itdr, Inc.	0/22	0/3
2195	9187	Mcdonald's Corporation	2/23	1/2
2196	9187	Csxperts Llc	6/23	1/2
2197	9187	Urbane Systems Llc	1/22	0/3
2198	9187	Techno Services Llc	2/23	2/2
2199	9187	Nextxap Inc.	1/22	0/3
2200	9187	Computer Technology Resources, Inc.	6/23	0/2
2201	9187	Liaison Technologies, Inc.	2/22	0/3
2202	9438	Genewiz, Inc.	0/24	-
2203	9438	Peel Technologies, Inc.	3/22	0/2
2204	9438	Sitek, Inc.	0/24	-
2205	9438	Gs Global Services, Inc.	2/20	0/4
2206	9438	Strava, Inc.	0/18	1/6
2207	9438	Gracenote, Inc.	0/9	0/15
2208	9438	Libsys Inc	1/19	0/5
2209	9438	Pluribus Networks, Inc.	0/19	1/5
2210	9438	Global Business Consulting Services, Inc.	2/22	0/2
2211	9438	Emergys Corporation	0/24	-
2212	9438	Starwood Hotels & Resorts Worldwide, Inc.	0/18	2/6
2213	9438	Amba Systems	0/23	0/1
2214	9438	Exegy Incorporated	3/15	2/9
2215	9438	Deluxe Media Creative Services Inc.	3/17	0/7
2216	9438	Netnumber, Inc.	0/20	0/4
2217	9438	Insight North America, Inc.	0/22	0/2
2218	9438	Global It Solutions Inc	0/24	-
2219	9438	Compunetix, Inc.	0/18	0/6
2220	9438	Lastline, Inc.	2/22	0/2
2221	9438	Tekdynamics, Inc.	0/23	0/1
2222	9438	Malla Systems Inc Dba Efulgent	0/18	0/6
2223	9438	Compusharp Inc	3/23	0/1
2224	9438	Softnet Consulting Inc.	1/22	0/2
2225	9438	Growbiz Services, Inc.	1/21	0/3
2226	9438	Lumen21, Inc.	1/20	1/4
2227	9438	Tescra Inc	1/20	0/4
2228	9438	Chenoa Information Services, Inc.	0/22	0/2
2229	9438	Arvyn Technologies, Inc	0/23	0/1
2230	9438	Alacriti, Inc.	0/21	0/3
2231	9438	It Objects Llc	0/24	-
2232	9438	Inttra, Inc.	0/19	0/5
2233	9438	Patni Americas, Inc.	-	11/24
2234	9438	Lumendata, Inc.	1/22	0/2
2235	9438	Smk Soft Inc	0/23	0/1
2236	9438	Eclaro International, Inc	4/22	0/2
2237	9741	Core Education & Technologies Ltd.	1/22	1/1
2238	9741	It Labs Inc	1/22	1/1
2239	9741	Solix Technologies Incorporated	1/23	-
2240	9741	Glotel, Inc.	1/21	0/2
2241	9741	Archer Grey, Llc	3/21	0/2
2242	9741	Doublebridge Technologies, Inc.	1/22	0/1
2243	9741	Calypso Software, Inc.	2/23	-
2244	9741	Maxonic, Inc.	0/23	-
2245	9741	Ez Tek Solutions, Inc.	0/23	-
2246	9741	Dmi Big Data Insights Llc	0/15	2/8
2247	9741	Simcorp Usa, Inc.	1/9	0/14
2248	9741	Creamos Solutions Inc	2/22	0/1
2249	9741	Packet-One Llc	6/21	0/2
2250	9741	Xpedite Technologies Inc	1/22	0/1
2251	9741	Banjo, Inc.	0/19	0/4
2252	9741	Embedur Systems, Inc.	1/21	0/2
2253	9741	Ciphercloud, Inc.	0/23	-
2254	9741	Aaxis Group Corporation	0/21	0/2
2255	9741	Pearl Consulting Services, Inc	2/23	-
2256	9741	Nsg Technology, Inc.	3/20	0/3
2257	9741	Genesis Research Llc	3/21	0/2
2258	9741	Abeam Consulting (Usa) Ltd.	1/20	0/3
2259	9741	Adroitent, Inc	1/21	0/2
2260	9741	Achieva I.T., Inc	0/22	0/1
2261	9741	Malax Solutions Inc.	1/21	1/2
2262	9741	Eapt Solutions, Inc.	1/23	-
2263	9741	Millennium Consultants Inc	1/20	0/3
2264	9741	Enova Technology Solutions	0/23	-
2265	9741	Addteq Llc	2/15	2/8
2266	9741	Pinger, Inc.	0/20	0/3
2267	9741	Eresources Consultants Inc.	3/18	0/5
2268	9741	Ithaka Harbors, Inc.	0/20	0/3
2269	9741	Livermore Software Technology Corp.	0/15	2/8
2270	9741	Infomet, Inc.	1/19	1/4
2271	9741	Dynamic Access Systems, Inc	1/20	1/3
2272	9741	Pagebites, Inc.	2/18	0/5
2273	9741	Atlas Systems Inc.	0/20	0/3
2274	9741	Pps Infotech Llc	3/23	-
2275	9741	Microturn System Inc	0/20	0/3
2276	10082	Primetime Technologies Inc.	1/20	0/2
2277	10082	Ayrus, Inc	0/22	-
2278	10082	Mvp Consulting Plus, Inc.	0/19	0/3
2279	10082	Infinite Solutions, Inc.	2/20	0/2
2280	10082	Etelligent Group Llc	0/22	-
2281	10082	Crystal Equation Corporation	0/21	1/1
2282	10082	Only It Solutions Inc	0/15	6/7
2283	10082	Sicher Global Solutions Inc	0/16	0/6
2284	10082	Materials Software Systems Inc	2/21	0/1
2285	10082	Infogix, Inc.	1/16	2/6
2286	10082	Subex, Inc.	0/17	2/5
2287	10082	Alfa Gl, Inc.	0/22	-
2288	10082	Aequor Technologies, Inc.	1/22	-
2289	10082	Dunn Solutions Group, Inc.	2/20	0/2
2290	10082	Actiance, Inc.	3/17	0/5
2291	10082	Emphasis Software Development, Inc.	0/15	1/7
2292	10082	Prometheus Computing, Llc	0/19	0/3
2293	10082	Optima Global Solutions, Inc.	2/19	0/3
2294	10082	Verism Systems, Inc.	1/20	0/2
2295	10082	Msys Inc.	1/22	-
2296	10082	Aptean, Inc.	0/16	0/6
2297	10082	Teletech Team, Llc	0/18	0/4
2298	10417	Cedar Document Technologies, Inc.	0/21	-
2299	10417	Applied Thought Auditors And Consultant, Inc	-	5/21
2300	10417	Wyde Corporation	0/13	0/8
2301	10417	Smartit Staffing, Inc.	1/18	2/3
2302	10417	Isqare Technologies, Inc	0/19	0/2
2303	10417	Pelco, Inc.	1/15	0/6
2304	10417	Xylo Technologies, Inc.	1/21	-
2305	10417	Logybytes, Inc.	0/21	-
2306	10417	Qualinfotech Solutions Inc.	2/18	0/3
2307	10417	Sv Tech Inc.,	1/20	0/1
2308	10417	Calsoft Systems	1/16	0/5
2309	10417	Genova Technologies, Inc.	0/21	-
2310	10417	Data Aixsys, Inc	0/20	0/1
2311	10417	Mark Logic Corporation	0/12	0/9
2312	10417	Dovetail Systems, Inc.	3/20	0/1
2313	10417	Pace Solutions, Inc.	0/19	0/2
2314	10417	Techexcel, Inc.	1/19	0/2
2315	10417	Manage My Dream, Llc	3/21	-
2316	10417	Iplanner, Inc.	0/21	-
2317	10417	Motus It, Inc.	0/19	1/2
2318	10417	Dice Technologies, Inc.	2/21	-
2319	10417	Chrome River Technologies, Inc.	3/20	0/1
2320	10417	@business, Inc.	2/21	-
2321	10417	Flying Food Group, Llc	0/17	0/4
2322	10417	Comp Consults Inc	1/20	0/1
2323	10417	Vsoft Infoware, Inc	4/20	0/1
2324	10417	Digital Infuzion, Inc.	1/20	0/1
2325	10417	Ardent Technologies Inc	3/19	0/2
2326	10417	Bis Consulting, Inc.	0/17	0/4
2327	10417	Amc Technology, Llc	1/18	1/3
2328	10417	Vertex Computer Systems, Inc.	0/17	1/4
2329	10417	Currier, Mccabe & Associates, Inc.	0/17	1/4
2330	10793	Vedasoft, Inc.	0/17	0/3
2331	10793	Aramark Management, Llc	2/20	-
2332	10793	Corporate America Business Solutions Inc	1/18	0/2
2333	10793	Global Tel*link Corporation	3/20	-
2334	10793	Ntech Solutions Inc	0/18	0/2
2335	10793	Capgemini Financial Services Usa Inc	0/6	1/14
2336	10793	Rsg Media Systems, Llc	2/16	0/4
2337	10793	Excel. Est Llc	0/20	-
2338	10793	Princeton Blue, Inc.	3/18	0/2
2339	10793	Wind River Systems, Inc.	0/16	0/4
2340	10793	Softions Consulting, Inc.	1/16	1/4
2341	10793	Vistaar Technologies, Inc.	1/19	0/1
2342	10793	Enoah Isolutions, Inc.	1/17	0/3
2343	10793	Anagh Technologies	-	0/20
2344	10793	Gtransit Solutions, Llc	3/20	-
2345	10793	Mortgage Industry Advisory Corp.	1/18	0/2
2346	10793	Nc Interactive, Llc	0/13	1/7
2347	10793	Comrise Technology, Inc.	1/17	0/3
2348	10793	Synacor Inc.	0/19	0/1
2349	10793	Cervello, Inc.	0/19	0/1
2350	10793	Jacada, Inc.	1/18	0/2
2351	10793	Prologin Technologies, Inc.	2/16	0/4
2352	10793	Avenues International Inc.	0/19	0/1
2353	10793	Dataprise, Inc.	2/14	1/6
2354	10793	Jnj Solutions Inc.	0/14	3/6
2355	10793	Aris Global Llc	0/19	0/1
2356	10793	Sentinel Technologies, Inc.	0/16	1/4
2357	10793	Corporate Technologies, Inc.	3/19	0/1
2358	10793	Celerity It, Llc	0/20	-
2359	10793	Xifin, Inc.	1/15	0/5
2360	10793	Ensoftek, Inc.	0/18	0/2
2361	10793	Logic Solutions, Inc.	0/15	0/5
2362	10793	Sutherland Healthcare Solutions, Inc.	1/17	1/3
2363	10793	Freedom Consulting Group Inc.	2/19	1/1
2364	10793	Mm Infotech, Inc.	0/19	0/1
2365	10793	Solugenix Corporation	0/17	0/3
2366	10793	Vision Information Technologies, Inc.	0/15	0/5
2367	10793	Vsoft Corporation Inc	1/19	0/1
2368	11177	Datadirect Networks, Inc.	1/15	0/4
2369	11177	Boston Technology Corporation	4/19	-
2370	11177	Infovision Technologies Inc	0/19	-
2371	11177	St Tech, Inc	1/18	0/1
2372	11177	Tvarana Software Solutions Llc	1/17	0/2
2373	11177	Aka Enterprise Solutions, Inc.	3/17	0/2
2374	11177	Lg Cns America Inc	2/16	0/3
2375	11177	Shoprunner, Inc.	0/17	0/2
2376	11177	Internext Corporation	2/17	0/2
2377	11177	Gamma Technologies, Inc.	0/14	0/5
2378	11177	Apps Consultants Inc.	2/18	0/1
2379	11177	Platys Group, Llc	0/16	2/3
2380	11177	The Dinex Group, Llc	0/19	-
2381	11177	Rhapsody International Inc.	1/17	0/2
2382	11177	Black Duck Software, Inc.	1/16	0/3
2383	11177	Exadel, Inc.	0/3	0/16
2384	11177	Frontier Communications Corporation	1/17	0/2
2385	11177	Happiest Minds Technologies Pvt Ltd	-	0/19
2386	11177	Findskills Inc	0/16	0/3
2387	11177	Innovative Systems Group, Inc.	0/18	0/1
2388	11177	Enquizit Inc.	0/18	0/1
2389	11177	Qlik Technologies, Inc.	0/14	0/5
2390	11177	Column Technologies, Inc.	0/19	-
2391	11177	Ishi Systems Inc	0/17	0/2
2392	11177	Gtl Usa Inc	3/16	1/3
2393	11177	Csid	0/12	1/7
2394	11177	Real Intent, Inc.	2/15	0/4
2395	11177	Real-Time Innovations, Inc.	0/14	0/5
2396	11177	Boardvantage, Inc.	1/19	-
2397	11177	Trident Consulting	3/19	-
2398	11177	Fastly, Inc.	0/15	0/4
2399	11177	Agilysys, Inc.	1/19	-
2400	11177	Document Solutions Group, Inc.	4/18	0/1
2401	11177	Mrp, Llc	0/17	0/2
2402	11177	Datatek Inc.	0/19	-
2403	11177	Spireon, Inc.	0/16	0/3
2404	11177	Sony Network Entertainment International Llc	2/19	-
2405	11177	Bhaninfo, Inc.	2/16	1/3
2406	11177	All-In-1, Inc.	1/16	0/3
2407	11177	Vicom Computer Services, Inc.	2/17	0/2
2408	11177	Strike Technologies, Llc	0/14	0/5
2409	11602	Tyco Integrated Security Llc	2/17	0/1
2410	11602	Starry Associates, Inc.	5/18	-
2411	11602	Tangome, Inc.	0/16	1/2
2412	11602	Object Edge, Inc.	0/15	0/3
2413	11602	Realflex Applications Llc	0/17	0/1
2414	11602	Innovatis Technologies Llc	1/17	0/1
2415	11602	Bridgeline Digital, Inc.	0/15	0/3
2416	11602	Origin Consulting, Llc	3/16	0/2
2417	11602	Dickinson & Associates, Inc.	0/12	1/6
2418	11602	Comtech Global, Inc.	4/17	0/1
2419	11602	Iementor Corp.	4/11	2/7
2420	11602	Softpak Financial Systems, Inc.	2/13	0/5
2421	11602	Medrio, Inc.	0/10	2/8
2422	11602	Sourcecode North America, Inc.	0/15	0/3
2423	11602	Intec Billing, Inc.	0/14	0/4
2424	11602	Communication Experts Inc.	1/17	0/1
2425	11602	Staffing Technologies, Llc	0/16	1/2
2426	11602	Nagra Usa, Inc.	0/14	0/4
2427	11602	M*modal	1/16	0/2
2428	11602	Cgs Technology Associates, Inc.	1/14	1/4
2429	11602	The Rainmaker Group Holdings, Inc.	2/13	0/5
2430	11602	Grasshopper Group Llc	0/12	0/6
2431	11602	Directv Llc	7/17	0/1
2432	11602	Azul Systems, Inc.	2/13	0/5
2433	11602	Verian Technologies Llc	6/16	1/2
2434	11602	Apn Software Services Inc.	1/17	0/1
2435	11602	Data Systems International	0/15	0/3
2436	11602	Verisk Health, Inc.	2/13	2/5
2437	11602	Csznet, Inc.	2/15	3/3
2438	11602	Openlane, Inc.	1/15	0/3
2439	11602	Tekpundits, Inc.	2/18	-
2440	11602	Ideal Consult Llc	0/16	0/2
2441	11602	Navigator Management Partners, Llc	0/16	0/2
2442	11602	Triple Point Technology, Inc.	0/14	0/4
2443	11602	Makeshopncompany, Inc.	1/16	0/2
2444	11602	Web Wisor Inc	0/17	0/1
2445	11602	Zilliant, Inc.	0/16	0/2
2446	11602	Italent, Inc.	2/15	0/3
2447	11602	Diligent Solutions, Inc.	3/17	0/1
2448	11602	K-Tek Resourcing Llc.	1/17	0/1
2449	11602	Rxlogix Corporation	0/12	0/6
2450	11602	Aavispro Llc	0/17	0/1
2451	11602	Sourcepulse, Llc	3/15	0/3
2452	11602	Itransition, Inc	1/15	0/3
2453	11602	Safenet, Inc.	0/17	0/1
2454	11602	Avesta Computer Services Ltd.	0/15	0/3
2455	11602	Optech, Llc	1/17	0/1
2456	12073	Bpo Systems, Inc.	1/16	0/1
2457	12073	24x7systems,Inc	0/16	0/1
2458	12073	Netsmart Technologies, Inc.	2/13	0/4
2459	12073	Agma Systems Llc	0/11	2/6
2460	12073	Whiztek Corp.	1/15	0/2
2461	12073	Primeon, Inc.	0/11	0/6
2462	12073	Morris & Willner Partners Inc.	0/14	0/3
2463	12073	Sikka Software Corporation	1/10	1/7
2464	12073	Landmark Technologies Inc.	1/17	-
2465	12073	Wharfedale Technologies, Inc.	0/16	0/1
2466	12073	Olr America Inc.	0/14	0/3
2467	12073	Reliance It, Inc.	0/14	0/3
2468	12073	Sun Technologies, Inc.	0/16	0/1
2469	12073	Vocollect, Inc.	0/13	1/4
2470	12073	Palm, Inc.	0/5	1/12
2471	12073	Itapsys Software Solutions Inc	1/15	0/2
2472	12073	On Off Shore Consultans Inc.	1/17	-
2473	12073	Sonsoft, Inc.	0/15	0/2
2474	12073	Lucas Systems, Inc.	0/13	0/4
2475	12073	Innate Solutions,Inc	1/17	-
2476	12073	Sarus Inc.	0/14	1/3
2477	12073	Sysazzle, Inc.	1/16	0/1
2478	12073	Cluster Software, Inc.	2/16	0/1
2479	12073	Global It Associates, Llc.	0/17	-
2480	12073	Deligent Llc	0/8	1/9
2481	12073	Application Development Resources, Inc.	0/14	2/3
2482	12073	Harken Data Inc.	0/14	0/3
2483	12073	J&B Software, Inc.	0/14	0/3
2484	12073	Syapps, Llc	0/13	0/4
2485	12073	Redmane Technology Llc	0/16	0/1
2486	12073	Abacus Business Solutions Inc	2/16	0/1
2487	12073	Xpanxion, Llc	2/16	0/1
2488	12073	Kirkland's Inc.	0/11	1/6
2489	12073	Valud Consulting Llc	1/16	0/1
2490	12073	Knacktek Llc	0/13	0/4
2491	12073	Vidyo Inc.	0/12	0/5
2492	12073	Statacorp, Lp	1/13	0/4
2493	12073	Telvent Usa, Llc	1/15	0/2
2494	12073	Eminent Technology Solutions, Inc.	0/17	-
2495	12073	Eai Technologies Llc	1/15	0/2
2496	12073	Sunrise Systems, Inc.	0/15	0/2
2497	12073	High Tech Consulting, Inc.	2/14	0/3
2498	12073	Tekbank Consultants, Inc.	0/15	0/2
2499	12569	Limelight Networks Inc.	1/15	1/1
2500	12569	Interactive Network Technologies, Inc.	1/14	0/2
2501	12569	Panasas, Inc.	0/12	0/4
2502	12569	Levi, Ray & Shoup, Inc.	1/15	0/1
2503	12569	Avansys, Inc.	2/16	-
2504	12569	Rms Computer Corp.	2/15	0/1
2505	12569	B2b Technology, Inc	0/14	0/2
2506	12569	Kofax, Inc.	1/10	1/6
2507	12569	R & R Systems Inc.	0/12	1/4
2508	12569	Bottomline Technologies (De), Inc.	2/11	0/5
2509	12569	Software Transformations Inc	0/11	0/5
2510	12569	Wisetek Providers, Inc.	1/15	0/1
2511	12569	Vaisnavi Group, Llc	2/14	0/2
2512	12569	3di, Inc.	0/14	0/2
2513	12569	Leading Edge Systems Richmond	0/15	1/1
2514	12569	Softpros, Inc.	0/15	0/1
2515	12569	Ensco, Inc.	1/15	0/1
2516	12569	Cdnetworks, Inc.	1/15	0/1
2517	12569	First Tier Technology, Llc	0/14	1/2
2518	12569	Virtela Technology Services Inc.	0/10	1/6
2519	12569	Amtex Enterprises, Inc.	0/13	0/3
2520	12569	Primetech Systems, Inc.	2/16	-
2521	12569	Global Software Resources, Inc.	0/14	0/2
2522	12569	Sap Public Services, Inc.	0/12	1/4
2523	12569	Hylee Llc	0/16	-
2524	12569	Scopus It	1/15	0/1
2525	12569	Savari, Inc.	1/15	0/1
2526	12569	Fiserv Automotive Solutions, Inc.	0/12	0/4
2527	12569	Winsome It Inc.	0/16	-
2528	12569	Deltek, Inc.	1/13	0/3
2529	12569	Guardian Analytics	0/11	1/5
2530	12569	Lumos Labs, Inc.	1/12	0/4
2531	12569	Systech International, Inc.	1/15	0/1
2532	12569	Map-It Solutions Inc	0/13	0/3
2533	12569	Ecap & Sol Inc	3/16	-
2534	12569	Indus It Valley, Inc.	0/15	0/1
2535	12569	Clarkston-Potomac Group, Inc.	0/15	1/1
2536	12569	Retailnext, Inc.	0/15	0/1
2537	12569	Aryaka Networks, Inc	0/15	0/1
2538	12569	Pctel, Inc.	1/13	0/3
2539	12569	Sunwise Solutions Inc	3/15	0/1
2540	12569	Kee Technologies Group, Inc.	0/16	-
2541	12569	Absomax Inc	1/16	-
2542	12569	Opsol Integrators Inc.	0/9	2/7
2543	12569	Frontage Technologies Inc	0/15	0/1
2544	12569	Iconics, Inc	0/13	0/3
2545	12569	Fabergent, Inc.	2/16	-
2546	12569	Buck Consultants, Llc	0/12	0/4
2547	12569	Object Computing, Inc.	1/15	0/1
2548	12569	Adva Optical Networking North America, Inc.	0/13	1/3
2549	12569	Smith Micro Software, Inc.	0/14	0/2
2550	12569	V-Solve, Inc.	1/15	0/1
2551	12569	Wynn Las Vegas, Llc	0/12	2/4
2552	12569	Convergys Corporation	0/14	1/2
2553	12569	Infinity Consulting Solutions, Inc.	0/14	0/2
2554	12569	Unify Systems, Inc.	1/11	0/5
2555	12569	Infosenseglobal Inc.	3/15	0/1
2556	12569	Coalfire Systems, Inc.	0/12	0/4
2557	12569	Bastian Solutions	1/13	0/3
2558	12569	Transnative Associates, Inc	0/16	-
2559	12569	Active Health Management	0/13	0/3
2560	12569	The Diligent Group Llc	-	0/16
2561	13176	Gcommerce, Inc.	1/14	0/1
2562	13176	Zytus,Inc	0/11	0/4
2563	13176	Wiz Tech, Inc.	0/5	3/10
2564	13176	Mqr Technologies Llc	2/14	0/1
2565	13176	Attempt It Solutions, Inc	1/13	0/2
2566	13176	Infoimage Inc	1/15	-
2567	13176	Alert Logic Inc.	0/12	1/3
2568	13176	Telarix, Inc.	0/11	1/4
2569	13176	Changsheng, Inc.	0/14	0/1
2570	13176	Brooks Automation, Inc.	0/15	-
2571	13176	Esolutions America, Inc.	1/11	0/4
2572	13176	Infusiondev Llc	0/8	0/7
2573	13176	Symphony Infotek, Inc.	1/15	-
2574	13176	Intermedia Group, Inc.	1/14	1/1
2575	13176	Architech Solutions, Llc	0/15	-
2576	13176	Tekcrew, Inc.	0/12	0/3
2577	13176	Wall Street Systems Delaware, Inc.	1/10	0/5
2578	13176	Magenic Technologies, Inc.	0/13	0/2
2579	13176	Video Gaming Technologies, Inc.	1/13	0/2
2580	13176	Anexinet Corp.	3/13	0/2
2581	13176	Get Well Network Inc.	0/11	0/4
2582	13176	Gree International, Inc.	0/15	-
2583	13176	Summa Technologies, Inc.	1/9	0/6
2584	13176	Vi Systems, Inc	1/15	-
2585	13176	Spinsci Technologies, Llc	2/14	1/1
2586	13176	International Technegroup Inc.	0/11	1/4
2587	13176	Exec Search, Inc.	0/11	0/4
2588	13176	Kompsoft, Inc.	1/14	0/1
2589	13176	Nanda Infotech Services Inc	0/11	3/4
2590	13176	Managed Markets Insight And Technology, Llc	1/15	-
2591	13176	Horizon Technologies Inc	0/13	1/2
2592	13176	Cpt Holdings, Inc.	0/12	0/3
2593	13176	Birst, Inc.	1/8	0/7
2594	13176	Dstillery Inc.	0/10	1/5
2595	13176	Gar Technologies Inc	1/13	2/2
2596	13176	Stoneriver, Inc.	0/13	0/2
2597	13176	Elemica, Inc.	1/12	0/3
2598	13176	Kineticom, Inc.	0/13	0/2
2599	13176	H-3 Technologies, Llc	0/14	1/1
2600	13176	Galois, Inc.	0/14	0/1
2601	13176	Bhargav Computer Consultants Usa-Ma, Inc	1/15	-
2602	13176	Netra Technologies, Inc.	3/15	-
2603	13176	Search Technologies Corp.	0/12	1/3
2604	13176	King Automation Incorporated	1/12	0/3
2605	13815	Jd Consulting, Inc.	0/13	0/1
2606	13815	Ideliver Techologies, Llc	0/14	-
2607	13815	A3h Foods, Lp	-	1/14
2608	13815	Nexgen Technologies Llc	0/11	0/3
2609	13815	United Supermarkets, Llc	1/13	0/1
2610	13815	Telephone & Data Systems, Inc.	2/13	0/1
2611	13815	Diverse Lynx, Llc	0/11	2/3
2612	13815	Saptopia Consulting Llc	0/12	0/2
2613	13815	Third I, Inc.	0/12	0/2
2614	13815	Dvi Technologies, Inc.D/B/A Datavibes Technologies	-	4/14
2615	13815	Sumeru Inc.	2/13	0/1
2616	13815	American Legalnet Inc	0/10	0/4
2617	13815	Brink's, Incorporated	0/11	0/3
2618	13815	Arnamy, Inc.	1/14	-
2619	13815	Unissant, Inc.	2/12	0/2
2620	13815	Infowaretech, Inc	1/12	1/2
2621	13815	Lab49, Inc.	0/11	0/3
2622	13815	Omnigon Communications, Llc	0/13	0/1
2623	13815	Techno Marketing Group Llc	1/11	0/3
2624	13815	Immidi Infotech Llc	2/14	-
2625	13815	Riskval Financial Solutions Llc	0/12	0/2
2626	13815	Oxaliz Technologies, Llc	0/12	0/2
2627	13815	Pulse Systems Inc.	3/9	3/5
2628	13815	Advantco International Llc	4/13	0/1
2629	13815	Venafi, Inc.	2/12	0/2
2630	13815	Ungerboeck Systems International, Inc.	1/13	0/1
2631	13815	Digimarc Corporation	0/10	1/4
2632	13815	Micro2mega, Inc.	0/11	1/3
2633	13815	Orian Engineers Incorporated	0/14	-
2634	13815	Amind Solutions, Llc	0/10	1/4
2635	13815	Netsuite Inc.	2/7	0/7
2636	13815	Millennium Info Tech, Inc	-	1/14
2637	13815	Omegacube Technologies, Inc.	1/12	1/2
2638	13815	Prospect 33 Llc	0/13	0/1
2639	13815	Mitratech Holdings, Inc.	0/13	0/1
2640	13815	Long Tail Ad Solutions Inc	0/14	-
2641	13815	Global Tech Inc	1/12	1/2
2642	13815	Acistek Corporation	0/12	0/2
2643	13815	Vichara Technologies, Inc.	0/12	0/2
2644	13815	Infoobjects, Inc	0/13	0/1
2645	13815	Najsoft, Inc	0/10	0/4
2646	13815	Mars It Corp	1/13	0/1
2647	13815	Think Tree Technologies Inc.	1/14	-
2648	13815	R Square, Inc	1/14	-
2649	13815	Cyret Technologies, Inc.	0/14	-
2650	13815	Klntek	0/14	-
2651	13815	Interra Information Technologies Inc	1/14	-
2652	13815	Marchex, Inc.	2/13	0/1
2653	13815	O'Neil Data Systems Llc	0/9	1/5
2654	13815	Forte Consulting Group	-	0/14
2655	13815	Genius Sis, Inc.	0/10	0/4
2656	13815	Majescomastek	-	12/14
2657	13815	Acclaris, Inc.	0/12	0/2
2658	13815	Decision Tree Consulting, Llc	1/12	0/2
2659	13815	Gxs, Inc.	1/14	-
2660	13815	Workflow Technologies, Inc.	1/13	0/1
2661	14560	Everge Group, Llc	0/12	0/1
2662	14560	Interloc Solutions Inc.	0/11	0/2
2663	14560	Linden Research, Inc.	0/9	0/4
2664	14560	9 Dots Technology, Inc.	1/11	0/2
2665	14560	Janus Automation Llc	0/7	0/6
2666	14560	Bucher And Christian Consulting, Inc.	0/13	-
2667	14560	Kaltech International Corporation	0/13	-
2668	14560	Altech Star Inc.	0/13	-
2669	14560	Wealthengine, Inc.	3/11	0/2
2670	14560	Datastaff, Inc.	0/12	0/1
2671	14560	Insomniac Games, Inc.	0/6	4/7
2672	14560	Vajrasoft, Llc	1/13	-
2673	14560	Computer Generated Solutions, Inc.	2/13	-
2674	14560	White Lodging Services Corp.	1/12	0/1
2675	14560	Ventures Unlimited Inc.	0/11	0/2
2676	14560	Linx-As, Llc	2/12	0/1
2677	14560	Citilabs, Inc.	0/12	0/1
2678	14560	Rivet Logic Corporation	0/10	0/3
2679	14560	Anjani Etech Solutions Inc	0/13	-
2680	14560	Brilliant Software Solutions, Inc.	0/13	-
2681	14560	Maxim Technologies Inc	0/12	0/1
2682	14560	Spar Solutions, Llc	1/10	0/3
2683	14560	Allied Digital Services, Llc	1/12	0/1
2684	14560	Veros Real Estate Solutions, Llc	0/11	1/2
2685	14560	Aptek Solutions, Inc.	0/10	1/3
2686	14560	Opentv Inc.	0/9	0/4
2687	14560	Snap-On Business Solutions	0/13	-
2688	14560	Bluesky Technology Partners, Inc.	0/11	0/2
2689	14560	Sunquest Information Systems, Inc.	2/11	0/2
2690	14560	Caresoft Inc	0/12	0/1
2691	14560	Ekuber Ventures Inc	0/13	-
2692	14560	Athenadoyens Llc	2/12	0/1
2693	14560	Corporate Systems Associates, Inc.	0/10	0/3
2694	14560	Piast Meats & Provisions, Inc.	-	1/13
2695	14560	Prolific Minds, Inc.	0/11	1/2
2696	14560	Aerospike, Inc.	0/10	1/3
2697	14560	Celmac Technology Services, Llc	0/12	0/1
2698	14560	Jupiter Consulting Services, Llc	0/11	0/2
2699	14560	Opal Soft, Inc.	2/11	0/2
2700	14560	Lucasfilm Entertainment Company Ltd. Llc	0/11	0/2
2701	14560	Aaj Computer Services, Inc.	0/9	0/4
2702	14560	Aviana Global Technologies Inc.	0/12	0/1
2703	14560	Motor Vehicle Software Corporation	0/10	0/3
2704	14560	Tmaxsoft Inc	1/12	0/1
2705	14560	Links Technology Solutions, Inc.	1/10	0/3
2706	14560	Prolient Group Corp.	0/13	-
2707	15429	Animoto Inc.	0/9	0/3
2708	15429	Brandon Consulting Associates, Inc.	2/9	0/3
2709	15429	Lcs Technologies, Inc.	0/11	0/1
2710	15429	Lumesis, Inc.	0/9	0/3
2711	15429	Tecra Systems, Inc.	0/10	0/2
2712	15429	Exultancy, Inc.	0/12	-
2713	15429	Mobilis Technologies, Llc	0/11	0/1
2714	15429	Evolver, Inc.	1/11	0/1
2715	15429	Nuaxis, Llc	0/9	0/3
2716	15429	Social Nation, Inc.	0/12	-
2717	15429	Jive Software, Inc.	1/6	0/6
2718	15429	Rosendin Electric, Inc.	0/10	0/2
2719	15429	Accelerant Software, Inc.	0/11	0/1
2720	15429	Scintel Technologies, Inc	1/10	0/2
2721	15429	Niksun, Inc.	1/9	0/3
2722	15429	Kitano Arms Corporation	0/9	1/3
2723	15429	K9 Sys Inc.	1/12	-
2724	15429	Prime Technology Group, Inc.	0/10	1/2
2725	15429	Logic House Ltd.	0/10	0/2
2726	15429	Key Solutions, Inc	1/10	0/2
2727	15429	Yum! Brands, Inc.	0/5	1/7
2728	15429	Pixomondo Llc	0/9	0/3
2729	15429	Boardwalktech, Inc.	1/11	0/1
2730	15429	Governmentjobs.Com	-	1/12
2731	15429	Softwareart Corporation	0/10	0/2
2732	15429	Sequent Software, Inc	0/11	0/1
2733	15429	Compugroup Medical, Inc.	0/11	0/1
2734	15429	General Dynamics Information Technology, Inc.	1/12	-
2735	15429	Ct Solutions, Inc.	0/12	-
2736	15429	Agilepoint, Inc.	0/10	0/2
2737	15429	Zephyr Health Inc.	1/10	0/2
2738	15429	Agile Enterprise Solutions Inc	0/12	-
2739	15429	Teza Technologies Llc	0/10	1/2
2740	15429	Y-Prime Inc.	1/10	0/2
2741	15429	Omnicomm Systems	0/8	0/4
2742	15429	Bestica Inc.	1/10	0/2
2743	15429	Crown Technical Systems	0/8	1/4
2744	15429	Advanced Resources Group, Inc.	0/10	0/2
2745	15429	Amaram Technology Corporation	2/10	0/2
2746	15429	Earth Resources Technology, Inc.	0/9	0/3
2747	15429	Synectics For Management Decisions, Inc.	1/10	0/2
2748	15429	Management Decisions, Inc.	2/12	-
2749	15429	Softerion Inc.	1/12	-
2750	15429	House Of Code, Inc.	0/9	0/3
2751	15429	Impac Medical Systems, Inc.	2/8	0/4
2752	15429	Sap International, Inc.	0/11	0/1
2753	15429	Systegration Inc.	2/11	0/1
2754	15429	Nwn Corporation	1/10	0/2
2755	15429	Sila Solutions Group Inc.	2/10	0/2
2756	15429	Zen Solutions Inc	0/11	0/1
2757	15429	The Rocket Science Group Llc	0/10	1/2
2758	15429	Manifest Solutions Corporation	2/10	0/2
2759	15429	Expertus, Inc.	1/11	0/1
2760	15429	Core Solutions, Inc	4/12	-
2761	15429	Dcr Workforce, Inc.	1/10	0/2
2762	15429	Crystal Data, Llc	0/11	0/1
2763	15429	Fulcrum Logic, Inc.	1/12	-
2764	15429	Duetto Research Inc.	0/10	0/2
2765	15429	Spectramd Usa Inc.	0/11	0/1
2766	15429	Expert Systems Consultants, Inc.	0/9	0/3
2767	15429	Qtech Solutions Inc	0/7	1/5
2768	15429	Softwave Consultants Inc.	0/12	-
2769	15429	Corillian Corporation	0/8	0/4
2770	15429	Realnetworks, Inc.	0/9	0/3
2771	15429	Tvs Infotech, Inc.	3/10	0/2
2772	15429	Adventure Solutions Inc	1/12	-
2773	15429	Automation Image, Inc.	1/7	3/5
2774	15429	Streebo, Inc.	0/10	0/2
2775	15429	Bizflow Corp	0/10	0/2
2776	15429	Jpay Inc.	0/9	0/3
2777	15429	Networking For Future, Inc.	3/12	-
2778	16421	Avalon Consulting, Llc	3/11	-
2779	16421	Tiara Consulting Services, Inc.	0/11	-
2780	16421	Byte Consulting, Inc.	1/10	0/1
2781	16421	Value Global Llc	0/9	0/2
2782	16421	Champion Technology Services, Inc	1/11	-
2783	16421	Ub Technology Innovations Inc.	0/8	0/3
2784	16421	Paradigm Geophysical Corp	0/9	0/2
2785	16421	Progressive Technology Solutions	0/9	0/2
2786	16421	Ilantus Technologies Pvt. Ltd.	0/8	0/3
2787	16421	Global Associates Inc	1/11	-
2788	16421	Iron Bow Technologies, Llc	0/9	0/2
2789	16421	Advanced Technologies Group Llc	0/11	-
2790	16421	Next Generation Technology Inc.	0/10	0/1
2791	16421	Synergetic Information Systems, Inc.	0/10	0/1
2792	16421	Design Data, Inc.	2/8	1/3
2793	16421	Indisoft Llc	1/10	0/1
2794	16421	Nrit Software Solutions Llc	0/11	-
2795	16421	Pangaia Partners Llc	1/9	0/2
2796	16421	Emulex Design And Manufacturing Corporation	0/9	0/2
2797	16421	Innovate!, Inc.	1/9	0/2
2798	16421	Iron Systems, Inc.	2/11	-
2799	16421	Identropy, Inc.	2/9	0/2
2800	16421	Software Systems And Solutions Inc.	0/9	0/2
2801	16421	Polaris Software Lab (India) Ltd.	-	11/11
2802	16421	Lincoln Technology Solutions, Llc	0/11	-
2803	16421	Springcm Inc.	0/11	-
2804	16421	Origami Logic	0/5	1/6
2805	16421	Arbor Networks, Inc.	0/11	-
2806	16421	Intouch Technologies, Inc	0/7	1/4
2807	16421	Aria Systems, Inc.	0/9	0/2
2808	16421	Bits & Bytes Technology Solutions Inc.	0/11	-
2809	16421	Nagrastar, Llc	0/8	0/3
2810	16421	Terasoft International Inc.	2/9	0/2
2811	16421	Servista Inc	0/11	-
2812	16421	Rapid Info Tech Solutions	0/10	0/1
2813	16421	Naan-N-Curry Llc	-	2/11
2814	16421	Chinese Gourmet Group, Inc.	2/10	0/1
2815	16421	Clearslide, Inc.	0/7	0/4
2816	16421	Orange Business Services U.S., Inc.	1/8	1/3
2817	16421	Saviynt Llc	1/4	0/7
2818	16421	Shria Management Llc	0/11	-
2819	16421	Computer Technology Services, Inc.	0/10	0/1
2820	16421	Openstream, Inc.	3/10	0/1
2821	16421	Onvia, Inc.	0/8	0/3
2822	16421	Ion Trading, Inc.	0/9	0/2
2823	16421	Georgia It Inc.	1/10	0/1
2824	16421	Navayuga Infotech Llc	1/10	0/1
2825	16421	Astor & Sanders Corporation	0/8	0/3
2826	16421	The Burgess Group, Llc	0/11	-
2827	16421	Xprudent Corp.	3/9	2/2
2828	16421	Tekzenit, Inc.	1/7	0/4
2829	16421	Misys International Banking Systems Inc.	0/9	0/2
2830	16421	Interlink Transport Technologies, Inc.	0/8	0/3
2831	16421	Xpand Corporation	0/11	-
2832	16421	Intellisys Technology, Llc	1/9	0/2
2833	16421	Abas-Usa, Inc.	0/9	0/2
2834	16421	Rightscale, Inc.	1/8	0/3
2835	16421	Mahathi Software Corporation	1/11	-
2836	16421	Teldata Communications, Inc.	1/11	-
2837	16421	Gss Infotech, Inc.	1/10	1/1
2838	16421	Infonet Technologies Llc	0/10	0/1
2839	16421	Xavor Corporation	2/9	0/2
2840	16421	Webxl Systems, Inc.	3/11	-
2841	16421	Aquatech International Corporation	2/11	-
2842	16421	Norcapco Integrated Solutions, Inc.	2/9	0/2
2843	16421	E*pro Inc.	2/11	-
2844	16421	Adpi Llc	0/11	-
2845	16421	Trion Worlds, Inc.	0/8	1/3
2846	16421	Adaptive Spectrum And Signal Alignment, Inc.	0/8	0/3
2847	16421	Olenick & Associates	1/10	0/1
2848	16421	Space Time Insight, Inc	1/9	0/2
2849	16421	Global Enterprise Management Solutions, Inc	2/10	0/1
2850	16421	Igate Americas Inc	-	9/11
2851	16421	Starpoint Solutions	0/8	0/3
2852	16421	Mars It Inc	2/11	-
2853	16421	Deluxe Digital Distribution Inc.	3/7	0/4
2854	16421	Ksap Technologies, Inc	0/11	-
2855	16421	Auriga, Inc.	0/11	-
2856	16421	Upthere, Inc.	5/9	0/2
2857	16421	Arustek Consulting Inc	3/10	0/1
2858	16421	Bmm North America Inc.	0/10	0/1
2859	16421	Qualifacts Systems, Inc.	1/11	-
2860	16421	Nintex Usa Llc	0/9	0/2
2861	16421	Nuesoft Technologies	1/9	2/2
2862	17578	Opencrowd, Inc.	0/10	-
2863	17578	Rigil Corporation	0/9	0/1
2864	17578	Branding Brand Inc.	2/10	-
2865	17578	Groupware Technology, Inc.	0/9	0/1
2866	17578	Inviso Corporation	0/9	0/1
2867	17578	Hector Systems Inc	2/10	-
2868	17578	Efront Financial Solutions Inc.	0/5	0/5
2869	17578	Eliot Hotel, Inc.	0/8	0/2
2870	17578	Moat Inc.	0/9	0/1
2871	17578	Epicor Software Corporation	0/7	0/3
2872	17578	Il Creation Of Maryland, Inc.	0/7	3/3
2873	17578	Elixir Technologies Corporation (Usa)	1/7	0/3
2874	17578	Altus Systems, Inc.	0/9	0/1
2875	17578	Netserv Applications Inc.	0/9	0/1
2876	17578	Pridevel Consulting, Llc	0/10	-
2877	17578	Alpha Technologies Usa Inc.	-	0/10
2878	17578	Edgesys, Inc	1/9	0/1
2879	17578	Agdata, Lp	0/9	0/1
2880	17578	Infovision21, Inc	0/8	1/2
2881	17578	Dbcom Consulting, Inc.	1/10	-
2882	17578	Addon Technologies Inc.	0/10	-
2883	17578	Rescon, Inc.	0/8	0/2
2884	17578	Merritt Hospitality, Llc	2/10	-
2885	17578	Tisco Group Inc.	0/10	-
2886	17578	Meritel Group, Llc	0/10	-
2887	17578	Vf Sportswear, Inc.	0/8	0/2
2888	17578	Accretive Health, Inc.	0/10	-
2889	17578	National Systems Consulting, Lp	-	1/10
2890	17578	Hirezon Corporation	0/9	0/1
2891	17578	Neocortex, Inc.	0/8	0/2
2892	17578	Vantage Labs Llc	2/9	0/1
2893	17578	Cincinnati Bell Technology Solutions Inc.	0/7	1/3
2894	17578	Ct Corporation System	0/8	0/2
2895	17578	Avero, Llc	0/7	0/3
2896	17578	Eastray Technologies Inc	1/10	-
2897	17578	Asa Computers, Inc.	1/10	-
2898	17578	Dialogic, Inc.	0/4	2/6
2899	17578	Sciforma Corporation	1/7	2/3
2900	17578	Riis, L.L.C.	2/10	-
2901	17578	Mobixip Llc	0/9	0/1
2902	17578	American Technology Services, Inc.	0/9	0/1
2903	17578	Aviat U.S., Inc.	0/6	0/4
2904	17578	Airsage, Inc.	0/9	0/1
2905	17578	Analogic Corporation	1/9	0/1
2906	17578	Stratus Technologies, Inc.	0/7	0/3
2907	17578	Hso North America, Llc	0/9	1/1
2908	17578	Flairsoft, Ltd.	0/10	-
2909	17578	Fse, Inc.	0/10	-
2910	17578	Gehry Technologies Inc.	0/10	-
2911	17578	Orchid Solutions Inc	1/9	0/1
2912	17578	Proximous, Inc.	0/9	0/1
2913	17578	Liiamra Business Strategies, Inc	0/9	0/1
2914	17578	Protege, Llc	0/4	0/6
2915	17578	K-Rise Systems, Inc.	0/9	0/1
2916	17578	Cylance, Inc.	0/10	-
2917	17578	Datanet Systems Corporation	0/9	0/1
2918	17578	Tricore Solutions Llc	1/8	0/2
2919	17578	Beacon Technologies Group, Inc.	1/6	3/4
2920	17578	Systec International Inc	2/10	-
2921	17578	Milestone Consulting Group Inc	0/7	2/3
2922	17578	Ritnoa, Inc	0/10	-
2923	17578	Rave Infosys, Inc.	0/10	-
2924	17578	The Armada Group, Inc.	1/10	-
2925	17578	Softeon Inc.	0/9	0/1
2926	17578	The Consortium, Inc.	0/9	0/1
2927	17578	Rising Tides Solutions Llc	0/6	0/4
2928	17578	Cyber Resource Group Inc	2/8	1/2
2929	17578	Axletree Solutions, Inc.	0/10	-
2930	17578	Nuview Technolgies, Inc.	-	0/10
2931	17578	Doyle Dupont Llc	2/10	-
2932	17578	Demandware, Inc.	0/6	0/4
2933	17578	Protegrity Usa, Inc.	0/10	-
2934	18940	Saameeri, Inc.	0/8	0/1
2935	18940	Prognos, Inc.	0/7	0/2
2936	18940	Sahasra Technologies Corp. Dba Stlogics	-	0/9
2937	18940	K Anand Corporation	0/9	-
2938	18940	Conrep, Inc.	1/7	0/2
2939	18940	Smartequip, Inc.	1/9	-
2940	18940	Infobeans Inc.	0/9	-
2941	18940	Techedge Usa	0/7	0/2
2942	18940	Tekvizion Pvs, Inc.	0/7	0/2
2943	18940	Prime Care Technologies, Inc.	2/8	0/1
2944	18940	Swarn Inc, D/B/A Tech Observer	-	0/9
2945	18940	Autotechmation Inc.	0/8	0/1
2946	18940	Bitech Consulting Group, Llc	3/9	-
2947	18940	Futuretech Consultants, Llc	2/9	-
2948	18940	Candid Partners Llc	0/8	0/1
2949	18940	Premium Technology, Inc.	0/7	0/2
2950	18940	New Target, Inc.	0/8	0/1
2951	18940	Qlogic Corporation	0/8	0/1
2952	18940	Livestream Llc	1/6	0/3
2953	18940	Vertex Software, Inc.	0/9	-
2954	18940	Vision Solutions, Inc	0/8	0/1
2955	18940	Sta Group Llc	0/9	-
2956	18940	Extrius Inc.	0/5	0/4
2957	18940	Sra America Inc	0/9	-
2958	18940	Sitecore Usa Inc.	0/7	0/2
2959	18940	Phoenix American Incorporated	1/4	0/5
2960	18940	Pragmatics, Inc.	0/5	0/4
2961	18940	Xm Data Strategies, Inc.	2/7	0/2
2962	18940	M.T.I. Usa, Inc.	0/8	0/1
2963	18940	Akshat Corporation	3/8	0/1
2964	18940	Juhusys Llc	1/9	-
2965	18940	Axiom Systems, Inc.	0/8	0/1
2966	18940	Compucom Systems, Inc.	0/9	-
2967	18940	Solution Street Llc	1/7	0/2
2968	18940	Cormac Corporation	0/8	0/1
2969	18940	Subhashini Software Solutions, Inc.	0/8	0/1
2970	18940	Resolvit Resources, Llc	0/9	-
2971	18940	Daintree Networks Inc	0/9	-
2972	18940	Gensecure, Inc.	0/8	0/1
2973	18940	Liferay, Inc.	0/5	1/4
2974	18940	Indecomm Holdings, Inc.	0/4	0/5
2975	18940	Interactive Intelligence Group, Inc.	0/5	0/4
2976	18940	Dufry America Inc.	3/9	-
2977	18940	Fusion Info Tech Inc	0/8	0/1
2978	18940	Aarisha, Inc	1/9	-
2979	18940	Technovista, Inc.	2/8	0/1
2980	18940	Ip Infusion, Inc.	2/8	0/1
2981	18940	Unified Development, Inc.	0/9	-
2982	18940	Ethertronics, Inc.	0/8	0/1
2983	18940	Advanced Software Design Inc.	0/8	0/1
2984	18940	Ivedix, Inc.	0/9	-
2985	18940	Ivs Consulting,Inc	1/9	-
2986	18940	Powersolv, Inc.	0/8	1/1
2987	18940	Jitterbit, Inc.	0/6	0/3
2988	18940	T-Cetra, Llc	0/8	1/1
2989	18940	Engagepoint, Inc.	0/7	0/2
2990	18940	3e Consulting, Inc.	0/5	0/4
2991	18940	Stg, Inc.	0/7	0/2
2992	18940	Sentrana, Inc.	0/9	-
2993	18940	Crif Corporation	0/6	0/3
2994	18940	Revention Inc.	1/7	0/2
2995	18940	Sid Computer Group Inc.	0/9	-
2996	18940	Dealer Dot Com, Inc.	0/7	1/2
2997	18940	Hostgator.Com, Llc	1/9	-
2998	18940	Fantasy Interactive Inc.	0/9	-
2999	18940	Saxon Infotech Inc.	2/8	0/1
3000	18940	Sky Chefs, Inc.	0/7	0/2
3001	18940	Globys, Inc.	0/8	0/1
3002	18940	Powerobjects	-	3/9
3003	18940	Aeroxchange Ltd.	2/8	0/1
3004	18940	Tauck, Inc.	0/7	2/2
3005	18940	Synactive, Inc.	0/7	0/2
3006	18940	Actuate Corporation	0/8	1/1
3007	18940	Soasta, Inc.	2/7	0/2
3008	18940	Cityon Systems, Inc	0/9	-
3009	18940	Sysnet Technology Solutions	-	2/9
3010	18940	Qatalys, Inc.	0/7	0/2
3011	18940	Param Healthcare & It Services	-	1/9
3012	18940	M-Tech Systems Usa, Inc	1/8	0/1
3013	18940	Acusys, Inc.	0/8	0/1
3014	18940	Nor1, Inc.	0/8	1/1
3015	18940	Polaris Wireless Inc	0/8	0/1
3016	18940	Swarky Solutions Corporation	0/7	0/2
3017	18940	Select Computing, Inc.	1/8	0/1
3018	18940	Scane Corp	0/8	0/1
3019	18940	Best Computer Systems Inc.	0/7	0/2
3020	18940	Arwano Inc	0/7	0/2
3021	18940	Asentech Llc	0/9	-
3022	18940	Tribridge Holdings Llc	0/6	0/3
3023	18940	Welldoc, Inc.	1/7	0/2
3024	18940	Columbia I.S. Consulting Group, Inc.	0/9	-
3025	18940	Bravosolution Us, Inc.	2/8	0/1
3026	18940	Good Data Corporation	0/5	1/4
3027	18940	Nextgen Information Services, Inc.	0/9	-
3028	18940	Syrinx Consulting Corporation	0/8	0/1
3029	18940	Jtb Usa, Inc.	0/4	0/5
3030	18940	Space Age Inc	6/8	1/1
3031	18940	Practice Fusion	0/4	0/5
3032	18940	Lumin Llc.	2/9	-
3033	18940	Acs International Resources Inc.	0/9	-
3034	18940	Webzion	0/3	0/6
3035	18940	Dtg Consulting Solutions, Inc.	0/6	1/3
3036	18940	Management And Global Technologies Consulting, Llc	0/7	0/2
3037	18940	Nextgen Healthcare Information Systems, Inc.	0/9	-
3038	18940	Techniligent, Inc.	2/9	-
3039	18940	Control Infotech Inc	0/7	0/2
3040	20635	Idi Consulting, Llc	0/8	-
3041	20635	Enterprise Tech Professionals, Inc	0/7	0/1
3042	20635	Utopiacompression Corporation	0/8	-
3043	20635	Total Computing Solutions Of America, Inc.	0/4	0/4
3044	20635	Aeturnum, Inc.	1/6	0/2
3045	20635	Rectorseal	0/6	2/2
3046	20635	Envision, Llc	1/7	0/1
3047	20635	Apple American Group Llc	0/8	-
3048	20635	Integrated Document Solutions, Inc.	0/8	-
3049	20635	Worksoft, Inc.	0/7	0/1
3050	20635	Allston Holdings Llc	2/5	0/3
3051	20635	Bqe Software, Inc.	1/7	0/1
3052	20635	Capgemini Government Solutions Llc	2/7	0/1
3053	20635	Vencedor Software Group Inc	1/8	-
3054	20635	Symbiosys Inc.	1/8	-
3055	20635	Fiserv Cir Llc	0/6	0/2
3056	20635	Global Tech Consultants, Inc.	0/8	-
3057	20635	E-Aspire It Llc	1/8	-
3058	20635	Enfos, Inc.	0/8	-
3059	20635	Southport Services Group, Llc	1/7	0/1
3060	20635	Aurora Solutions, Inc.	0/7	0/1
3061	20635	Intelligroup Inc.	-	8/8
3062	20635	Sonic Information Systems Inc.	0/8	-
3063	20635	First Orion Corporation	0/7	0/1
3064	20635	Intact Technology Inc.	1/8	-
3065	20635	Cheetah Software Systems, Inc.	1/7	0/1
3066	20635	The Verndale Corporation	0/7	0/1
3067	20635	Tieto U.S., Inc.	1/7	0/1
3068	20635	Eagle Technologies, Inc.	0/6	0/2
3069	20635	Carreker Corporation	0/6	0/2
3070	20635	Zettaset, Inc.	0/4	1/4
3071	20635	Doubledutch, Inc.	1/8	-
3072	20635	Whitaker-Taylor, Inc.	0/8	-
3073	20635	Platinum Db Consulting Inc	0/7	0/1
3074	20635	Proarch It Solutions, Inc.	0/8	-
3075	20635	Accurate Group, Inc.	0/7	0/1
3076	20635	Delta Tour & Travel Service Inc.	0/6	0/2
3077	20635	Ngmoco, Llc	0/8	-
3078	20635	Leancor Llc	0/8	-
3079	20635	Rac Infotech, Inc.	0/8	-
3080	20635	Mindspan Systems, Inc.	1/7	0/1
3081	20635	Montage Consignments, Inc.	0/7	0/1
3082	20635	Calance Corporation	2/8	-
3083	20635	Nexabyte Consulting Group, Inc	0/8	-
3084	20635	Target Labs, Inc.	0/6	0/2
3085	20635	Seachange International, Inc.	0/2	0/6
3086	20635	Otis Information Technologies Inc	-	3/8
3087	20635	Yaltech Consulting Inc	0/7	0/1
3088	20635	Spurgetech Llc	0/8	-
3089	20635	Mannatech, Inc.	0/6	0/2
3090	20635	Lectra Usa	0/4	0/4
3091	20635	Fx Palo Alto Laboratory, Inc.	1/7	0/1
3092	20635	Kareo, Inc.	0/6	0/2
3093	20635	Integrated Talent Solutions, Inc.	1/8	-
3094	20635	Analytics 8 Llc	1/7	0/1
3095	20635	Gdkn Corporation	3/8	-
3096	20635	Techsol4u Inc	0/8	-
3097	20635	Fairfax Data Systems, Inc.	2/7	0/1
3098	20635	Nexeon Technology & Business Services, Llc	3/8	-
3099	20635	Edgile, Inc.	-	0/8
3100	20635	Ivory Systems, Inc.	1/7	0/1
3101	20635	Terillium, Inc.	0/8	-
3102	20635	Pramisoft Inc	0/7	1/1
3103	20635	Integration International Inc.	0/6	0/2
3104	20635	Quality Consulting Inc Dba Qci	-	1/8
3105	20635	Hp Tuners, Llc	0/7	0/1
3106	20635	Cortex Consulting Services, Inc.	0/7	0/1
3107	20635	Rci Technologies, Inc.	0/8	-
3108	20635	Future Dial, Inc.	0/7	0/1
3109	20635	Supportian Inc.	0/8	-
3110	20635	Tech Point Solutions,Inc	0/8	-
3111	20635	Quality System	0/5	0/3
3112	20635	Capspire, Inc.	0/7	0/1
3113	20635	Logigear Corporation	0/4	0/4
3114	20635	Talentburst, Inc.	0/8	-
3115	20635	Infopro Systems Inc	1/6	0/2
3116	20635	Coraxis Corporation	0/4	2/4
3117	20635	Attivio, Inc.	0/7	0/1
3118	20635	Adaptik Corporation	0/5	0/3
3119	20635	Rwin Technologies Llc	0/8	-
3120	20635	Implementation Technologies Consulting, Inc.	2/8	-
3121	20635	Synergy Computer Solutions, Inc.	1/6	1/2
3122	20635	Eice International Inc.	1/5	1/3
3123	20635	Sqa Labs, Inc.	0/7	0/1
3124	20635	Quanta Systems, Inc.	0/8	-
3125	20635	Senryo Technologies	0/8	-
3126	20635	Milestone Technologies, Llc.	0/7	0/1
3127	20635	The Search Agency, Inc.	0/8	-
3128	20635	Chelsio Communications, Inc.	0/6	0/2
3129	20635	Team Tsi Corporation	0/4	0/4
3130	20635	Netelligent Corporation	0/6	0/2
3131	20635	Medtouch	0/6	0/2
3132	20635	Ilsley Music, Inc.	3/7	1/1
3133	20635	Palisade Corporation	0/7	0/1
3134	20635	Atellis, Inc.	2/7	0/1
3135	20635	Bbk Holdings, Llc	1/5	0/3
3136	20635	Onemarketdata Llc	0/8	-
3137	22705	Aderas, Inc.	0/7	-
3138	22705	Alliance Information Technology & Computer Softwar	-	3/7
3139	22705	Epi-Use Labs, Llc	0/4	0/3
3140	22705	Tekvana, Inc	0/7	-
3141	22705	Delaware Hotel Group Llc	0/6	0/1
3142	22705	Symmetry Consulting Corporation	0/7	-
3143	22705	Ultramatics, Inc.	0/7	-
3144	22705	Creative Ideas Simple Solutions, Inc.	0/6	0/1
3145	22705	The Aes Group Inc.	0/6	0/1
3146	22705	Collaborative Consulting, Llc	0/3	0/4
3147	22705	Avocent Huntsville Corp.	3/7	-
3148	22705	Global Science & Technology, Inc.	0/7	-
3149	22705	Pace Incorporated	0/6	0/1
3150	22705	Visage Mobile, Inc.	0/6	0/1
3151	22705	Inmata Solutions Inc.	0/7	-
3152	22705	Dataart Solutions, Inc.	0/3	0/4
3153	22705	Avepoint, Inc.	0/5	0/2
3154	22705	Innosoft Corporation	0/7	-
3155	22705	Continuserve Llc	1/7	-
3156	22705	Thatone Company, Inc.	1/6	1/1
3157	22705	Atlas Development Corporation	0/6	0/1
3158	22705	Eloyalty Llc	0/6	0/1
3159	22705	Shiva Information Technology Services, Inc.	1/6	1/1
3160	22705	Ritham Inc	0/6	0/1
3161	22705	Ngp Van, Inc	0/7	-
3162	22705	Strata Marketing, Inc.	0/7	-
3163	22705	Logic 20/20, Inc.	3/6	0/1
3164	22705	Amer Technology Inc	1/7	-
3165	22705	Prosum Inc.	1/6	0/1
3166	22705	4sight Technologies, Inc.	0/7	-
3167	22705	Health Data Insights, Inc.	0/6	0/1
3168	22705	E-Core It Solutions, Llc	0/4	2/3
3169	22705	Dextersoft, Inc.	4/7	-
3170	22705	Professional Alternative Inc.	0/7	-
3171	22705	Marriott Ownership Resorts, Inc.	0/6	0/1
3172	22705	Steelwedge Software, Inc.	2/6	0/1
3173	22705	Sysmind Llc	1/7	-
3174	22705	Saz Labs, Inc.	1/5	0/2
3175	22705	Om Consulting Inc Dba Wise Men Consultants	-	0/7
3176	22705	Aandavar Technologies Llc	2/7	-
3177	22705	Pc Net Inc	0/7	-
3178	22705	Rimes Technologies Corporation	3/6	0/1
3179	22705	Mcgi Tec, Inc.	0/6	0/1
3180	22705	Azimuth Systems, Inc.	0/6	0/1
3181	22705	Sigmatek Systems International, Llc	1/5	1/2
3182	22705	Northern Light Singlepoint, Llc	0/6	0/1
3183	22705	Award Solutions, Inc.	0/6	0/1
3184	22705	Gurus Information Technology Services, Llc	0/7	-
3185	22705	Thrasys, Inc.	0/5	0/2
3186	22705	Attunix Corporation	0/4	0/3
3187	22705	Aryasai Inc.	0/7	-
3188	22705	Jssb Fairfax, Llc T/A Todai Fairfax	3/4	1/3
3189	22705	Inventura Llc	0/6	0/1
3190	22705	Heerasoft Inc.	0/6	0/1
3191	22705	Professional Datasolutions, Inc.	1/7	-
3192	22705	Clarity Solutions Group Llc	0/5	0/2
3193	22705	Global Touchpoints, Inc.	1/1	0/6
3194	22705	Iormyx Inc	0/7	-
3195	22705	Driven, Inc.	1/7	-
3196	22705	Arikkan, Inc.	0/5	0/2
3197	22705	Kaspersky Lab, Inc.	0/5	0/2
3198	22705	Smartshift Technologies, Inc.	0/6	0/1
3199	22705	Btm Global Consulting, Llc	0/6	0/1
3200	22705	Spatial Corp.	0/6	0/1
3201	22705	Dynanet Corporation	0/7	-
3202	22705	Nok Nok Labs, Inc.	0/6	0/1
3203	22705	Kcura Corporation	-	0/7
3204	22705	Saturn Electronics Corporation	0/5	0/2
3205	22705	Idealforce Llc	0/7	-
3206	22705	Creative Solutions Services, Llc	0/6	0/1
3207	22705	Telesign Corporation	0/6	0/1
3208	22705	Towerstrides, Inc.	0/4	0/3
3209	22705	Logixtech Solutions, Llc	0/6	0/1
3210	22705	Acropetal Inc	1/6	0/1
3211	22705	Smartzip Analytics Inc.	1/6	0/1
3212	22705	Working Assets Funding Service, Inc.	0/6	0/1
3213	22705	Tk20, Inc.	0/6	0/1
3214	22705	Webrunners Inc	0/6	0/1
3215	22705	Oceanside Love Boat Group, Inc.	0/2	0/5
3216	22705	Cube Infosys, Llc	0/7	-
3217	22705	Austin Test Inc.	2/7	-
3218	22705	Marquee Of Emerging Markets Inc	0/6	0/1
3219	22705	Teksmart Consulting Llc	2/6	0/1
3220	22705	Tekstream Solutions, Llc	0/3	1/4
3221	22705	Media World, Llc	0/4	2/3
3222	22705	Crowdstar, Inc.	0/5	0/2
3223	22705	Brainer Consultancy,Inc	0/1	0/6
3224	22705	New York Ehealth Collaborative	1/7	-
3225	22705	Liquidate Direct Llc	0/3	0/4
3226	22705	Fmt Consultants	0/4	0/3
3227	22705	Grey Wall Software Llc	0/5	0/2
3228	22705	Sv Systems Inc	1/7	-
3229	22705	Tier1, Inc.	0/4	0/3
3230	22705	Cac America Corporation	0/3	1/4
3231	22705	Vidscale, Inc.	0/4	0/3
3232	22705	Catalyst Repository Systems	0/5	1/2
3233	22705	Rosetta Stone Ltd.	0/6	0/1
3234	22705	Mdm Brickell Hotel Group, Ltd.	0/6	0/1
3235	22705	Redtail Technology	0/7	-
3236	22705	Sml Solutions, Inc	0/5	0/2
3237	22705	Imagetrend, Inc.	0/4	2/3
3238	22705	Ubiquiti, Inc.	0/7	-
3239	22705	3clogic, Inc.	1/6	0/1
3240	22705	Valve	-	0/7
3241	22705	Indus Valley Software,Inc	0/7	-
3242	22705	Vegas.Com, Llc	1/7	-
3243	22705	Konami Digital Entertainment, Inc.	0/4	0/3
3244	22705	Spiders Software Solutions Llc	1/4	1/3
3245	22705	Logic Rule, Inc.	1/7	-
3246	22705	Aumkaara, Inc.	0/6	0/1
3247	22705	Gp Consulting, Llc.	0/7	-
3248	22705	Premier Technologies, Inc.	0/7	-
3249	22705	Indusa Technical Corporation	0/7	-
3250	22705	Sunware Associates Inc.	0/6	0/1
3251	22705	Mastermind Educational Services Inc	0/6	0/1
3252	22705	Kw Itech, Inc.	1/5	0/2
3253	22705	Bangkok 54 Co.	-	1/7
3254	22705	Netcom Systems, Inc.	1/5	0/2
3255	22705	Ipswitch, Inc.	0/4	0/3
3256	22705	F&I Administration Solutions, Llc.	0/7	-
3257	22705	At4 Wireless, Inc.	0/4	0/3
3258	25371	Innospire Systems Corporation	0/6	-
3259	25371	Realistic Computing, Inc.	2/6	-
3260	25371	Entomo, Inc.	0/5	0/1
3261	25371	Aadhick Solutions Inc	0/6	-
3262	25371	Customer Care Inc.	0/6	-
3263	25371	Genani Llc	2/6	-
3264	25371	Zolon Tech, Inc.	0/6	-
3265	25371	Vidatronic, Inc.	0/6	-
3266	25371	O3 Technology Solutions, Llc	0/6	-
3267	25371	Bullseye Telecom, Inc.	0/5	0/1
3268	25371	Optimal Solutions, Inc.	0/6	-
3269	25371	Connecture, Inc.	1/5	0/1
3270	25371	Techsoup Global	0/6	-
3271	25371	Cyber Consulting, Inc	3/6	-
3272	25371	Critical Resource Technology, Inc.	0/5	0/1
3273	25371	Kas Software Solutions Llc	0/6	-
3274	25371	Viraj Llc	-	6/6
3275	25371	Alberto's Mexican Food	-	4/6
3276	25371	Blur Studio, Inc.	0/4	0/2
3277	25371	Ultramain Systems Incorporated	1/6	-
3278	25371	Mywebgrocer, Inc.	1/6	-
3279	25371	Net Android Corp	1/5	0/1
3280	25371	Ist, Inc.	1/5	0/1
3281	25371	A2z, Inc.	1/6	-
3282	25371	It Elite Inc	1/6	-
3283	25371	Synergic Solutions, Inc.	0/6	-
3284	25371	Fnc, Inc.	0/6	-
3285	25371	Mediaocean	-	0/6
3286	25371	Marucco, Stoddard, Ferenbach & Walsh, Inc.	1/5	0/1
3287	25371	Callisto Integration Inc.	0/6	-
3288	25371	Epay Systems, Inc.	0/5	0/1
3289	25371	Princeton Consultants	0/4	0/2
3290	25371	Cardinal Solutions Group	0/4	1/2
3291	25371	Gameloft, Inc.	2/6	-
3292	25371	Integrated Statistics	1/6	-
3293	25371	Vocado, Llc	0/4	1/2
3294	25371	Srs Teksoft, Inc.	0/5	0/1
3295	25371	Ameresco, Inc.	1/5	1/1
3296	25371	Fusion Objects Corporation	0/5	0/1
3297	25371	Xelleration, Llc	0/3	1/3
3298	25371	Fss Technologies Inc.	0/6	-
3299	25371	Neobytes Llc	0/5	0/1
3300	25371	Sanvista, Inc.	0/6	-
3301	25371	Percussion Software, Inc.	1/4	1/2
3302	25371	Iv Technologies Inc.	0/6	-
3303	25371	Dhansol Software Solutions, Llc	0/6	-
3304	25371	Smartcare, Inc	0/6	-
3305	25371	Cautela Institute Of Informatics And Technology	0/6	-
3306	25371	Digital Map Products, Inc.	1/4	1/2
3307	25371	Phoenix Business Inc.	1/6	-
3308	25371	Enrollment Rx, Llc	2/6	-
3309	25371	Dst Systems, Inc.	0/6	-
3310	25371	Nueva Solutions Inc.	0/6	-
3311	25371	Meridian Knowledge Solutions Llc	0/6	-
3312	25371	Stlport Consulting, Inc.	0/3	0/3
3313	25371	Smartswitch. Llc	0/4	0/2
3314	25371	Simulations Plus, Inc.	0/6	-
3315	25371	Nforce Technologies Llc	0/6	-
3316	25371	Softengine Inc.	0/4	0/2
3317	25371	Drivenbi, Llc	1/5	0/1
3318	25371	Tekplant, Inc.	0/5	0/1
3319	25371	Lantronix	0/5	0/1
3320	25371	Application Consulting Group, Inc.	0/4	0/2
3321	25371	North America Rapid Results Technologies	0/6	-
3322	25371	Network Specialty Group, Inc.	0/6	-
3323	25371	Monitise Americas, Inc.	0/4	0/2
3324	25371	Roam Data, Inc.	0/2	1/4
3325	25371	N & B Team Consulting, Inc.	0/4	0/2
3326	25371	Idyllic Solutions, Llc	0/6	-
3327	25371	R3d Consulting Corp.	0/4	0/2
3328	25371	Rmt Systems Llc	1/5	0/1
3329	25371	Naehas, Inc.	0/6	-
3330	25371	Ef International Academy, Inc.	0/6	-
3331	25371	Tiny Planet Inc	0/5	1/1
3332	25371	Object Data, Inc.	0/6	-
3333	25371	Rockyou, Inc.	0/6	-
3334	25371	Driscoll Strawberry Associates, Inc.	0/1	2/5
3335	25371	Voicebox Technologies, Inc.	0/1	1/5
3336	25371	Foothills Consulting Group, Inc.	0/5	0/1
3337	25371	Mohegan Tribal Gaming Authority Aka Mohegan Sun	0/5	0/1
3338	25371	Rithtech Software Services Llc	0/6	-
3339	25371	E Divya Business Solutions, Inc.	0/6	-
3340	25371	3 Play Networks Inc.	0/4	0/2
3341	25371	Etouches, Inc.	0/4	0/2
3342	25371	Intramart, Inc.	1/4	0/2
3343	25371	Deutsche Boerse Systems, Inc	1/5	0/1
3344	25371	Resonetics, Llc	0/4	0/2
3345	25371	Gallop Solutions, Inc.	0/6	-
3346	25371	Nksm Technologies, Inc.	0/5	0/1
3347	25371	Aaptaa, Inc.	0/6	-
3348	25371	Broadvision Inc.	0/6	-
3349	25371	Solution Technology Systems, Inc.	1/5	0/1
3350	25371	Pas, Inc.	-	0/6
3351	25371	Worldwide Travel Inc.	0/4	0/2
3352	25371	Vishak, Inc.	0/6	-
3353	25371	Fullscope, Inc.	0/4	0/2
3354	25371	Neelinfo, Inc.	0/5	1/1
3355	25371	Jma Information Technology, Inc.	0/5	0/1
3356	25371	Sushi 1, Inc.	2/4	0/2
3357	25371	Noom, Inc.	1/5	0/1
3358	25371	Sennovate, Inc.	0/6	-
3359	25371	Spectrum Systems, Inc.	0/5	0/1
3360	25371	Stratapps, Inc.	0/6	-
3361	25371	Chenosa Systems Corporation	0/6	-
3362	25371	Zycron, Inc.	0/5	0/1
3363	25371	Lodestar Consulting Llc	0/5	1/1
3364	25371	Meganet Solutions Llc	0/6	-
3365	25371	Netsync Network Solutions	0/4	0/2
3366	25371	Vivid Edge Corp.	0/5	0/1
3367	25371	Decca Consulting Llc	0/6	-
3368	25371	Tourico Holidays, Inc.	0/6	-
3369	25371	Infosynergy, Inc.	0/5	0/1
3370	25371	Paragon Solutions, Inc.	0/4	0/2
3371	25371	Rulemeister, Inc.	0/5	0/1
3372	25371	Cynergy Systems, Inc.	0/4	1/2
3373	25371	Speech Soft Solutions Formerly Speech-Soft Llc	0/6	-
3374	25371	Daniels Associates, Inc.	0/5	0/1
3375	25371	The Thalerus Group, Inc.	0/6	-
3376	25371	Great Falls Software Solutions, Inc.	0/6	-
3377	25371	Deltasoft Solutions Llc	1/6	-
3378	25371	Builder Homesite,Inc.	0/6	-
3379	25371	Accellion, Inc.	1/6	-
3380	29073	Rosetta Marketing Group, Llc	0/4	0/1
3381	29073	Universal Robotics, Inc.	0/5	-
3382	29073	H.I.S. International Tours (Ny) Inc.	-	0/5
3383	29073	Luong Enterprises Llc	-	0/5
3384	29073	Phoenix Staff Inc.	0/5	-
3385	29073	Burgiss Inc	0/2	0/3
3386	29073	World Class Work Force, Lp	-	0/5
3387	29073	Datapro, Inc.	-	2/5
3388	29073	Rnr Software Inc	0/5	-
3389	29073	Biztech Solutions Inc.	0/5	-
3390	29073	Softsmile Systems Inc.	0/5	-
3391	29073	Epoch Solutions Group Inc.	0/5	-
3392	29073	The Kohl Group, Inc.	0/5	-
3393	29073	Datamax Software Group Inc	0/5	-
3394	29073	Sepco Group, Inc.	3/5	-
3395	29073	Traittek Llc	0/4	0/1
3396	29073	Logility, Inc.	0/3	1/2
3397	29073	Oakston Technologies	1/2	0/3
3398	29073	Asset Inventories, Inc.	3/5	-
3399	29073	Filmnation Entertainment Llc	0/3	0/2
3400	29073	Apriori Technologies, Inc.	0/4	0/1
3401	29073	Smith Johnson Group, Inc.	0/5	-
3402	29073	Clearstructure Financial Technology, Llc	0/4	0/1
3403	29073	Robertshaw Controls Company	0/4	0/1
3404	29073	Vajraasys Limited	0/4	0/1
3405	29073	Autotask Corporation	0/4	0/1
3406	29073	Cliosoft, Inc.	0/5	-
3407	29073	Scarlet Infotech, Inc. Dba Expedien	1/5	-
3408	29073	Vmr Technologies, Inc.	0/5	-
3409	29073	International Business Solutions, Ltd	0/5	-
3410	29073	Academia, Inc.	1/4	0/1
3411	29073	Gaikai Inc.	0/3	0/2
3412	29073	Adi Strategies, Inc.	0/4	1/1
3413	29073	Pc Specialists, Inc.	0/4	0/1
3414	29073	Mentis Systems, Inc.	0/4	0/1
3415	29073	Id Insight Inc.	0/5	-
3416	29073	Rd Data Solutions, Llc	0/5	-
3417	29073	Kourage, Inc.	0/5	-
3418	29073	Altia Systems, Inc.	0/5	-
3419	29073	Sancrosoft Usa, Inc.	0/5	-
3420	29073	Geddam Solutions And Services Inc.	0/2	1/3
3421	29073	Outcomes Incorporated	0/5	-
3422	29073	Ccm Consulting Services, Inc.	0/5	-
3423	29073	Apex Process Consultants, L.L.C.	0/4	0/1
3424	29073	Lorentz Solution, Inc.	0/5	-
3425	29073	Prov International, Inc.	1/4	1/1
3426	29073	Futura Systems Inc.	0/3	0/2
3427	29073	Avi Technologies Inc	0/4	0/1
3428	29073	V3it Consulting	0/4	1/1
3429	29073	P P Consulting, Llc	1/5	-
3430	29073	Celestix Networks, Inc.	0/5	-
3431	29073	Hansen Technologies North America, Inc.	0/5	-
3432	29073	Maginatics, Inc.	0/1	1/4
3433	29073	Forio Corporation	0/5	-
3434	29073	Crankfrog, Llc	0/5	-
3435	29073	D2s, Inc.	0/5	-
3436	29073	Satyam Computer Services Limited	-	5/5
3437	29073	Datarich Management Systems Ltd	0/3	0/2
3438	29073	Americannurses.Com	0/5	-
3439	29073	Aspire Hr, Inc.	0/3	0/2
3440	29073	Netpro Logic, Inc.	0/4	0/1
3441	29073	Emprise Consulting, Llc	0/5	-
3442	29073	Silvaco, Inc.	0/4	0/1
3443	29073	Avionte, Llc	0/3	0/2
3444	29073	Enterprisedb Corporation	0/4	0/1
3445	29073	Silver Peak Solutions, Inc.	0/5	-
3446	29073	Aditi Technologies Pvt. Ltd.	-	1/5
3447	29073	Bosch Software Innovations Corporation	0/3	0/2
3448	29073	Redbeacon	-	0/5
3449	29073	Lifestreet Corporation	0/2	0/3
3450	29073	Guidance Software, Inc.	0/4	0/1
3451	29073	Garden Suite Hotel & Resorts Inc	-	2/5
3452	29073	Emids Technologies Private Limited Corp	1/4	0/1
3453	29073	Kixeye, Inc.	0/4	0/1
3454	29073	Datavision Inc.	0/5	-
3455	29073	Dataquest, Inc.	0/5	-
3456	29073	Vsee Lab, Inc.	0/4	0/1
3457	29073	Armature Solutions Corporation	0/4	0/1
3458	29073	Source Allies, Inc.	1/5	-
3459	29073	Trusted Mission Solutions Inc	0/5	-
3460	29073	Emsi Engineering, Inc.	0/2	0/3
3461	29073	Database International Group, Inc.	1/5	-
3462	29073	Finite States Inc	0/5	-
3463	29073	Macrosys, Llc	1/4	0/1
3464	29073	Ubics, Inc.	0/5	-
3465	29073	Intellect It, Llc	0/4	0/1
3466	29073	Business Performance Management Northwest, Inc.	0/5	-
3467	29073	Sun Labs Usa, Inc.	0/5	-
3468	29073	Inirus, Llc	0/5	-
3469	29073	Salem Associates, Inc.	0/5	-
3470	29073	Vivos Professional Services, Llc.	0/5	-
3471	29073	Global Technology & Serivces Inc	-	2/5
3472	29073	Bizteon, Inc.	1/5	-
3473	29073	Excellis Consulting Corporation	1/5	-
3474	29073	Wildtangent, Inc.	1/3	1/2
3475	29073	High Impact Technologies, Inc.	0/5	-
3476	29073	Core Providers Llc	0/5	-
3477	29073	Tech Systems Sws, Inc.	0/5	-
3478	29073	Lucent Jewelers Inc.	0/4	1/1
3479	29073	Top Travel, Inc.	0/1	0/4
3480	29073	Fuji Hana Steak & Sushi	-	0/5
3481	29073	Infinite Campus, Inc.	0/4	0/1
3482	29073	Tss Wireless, Inc.	0/4	1/1
3483	29073	Skolix, Llc	0/5	-
3484	29073	Harvard Soft, Inc.	0/5	-
3485	29073	American Well Corporation	0/4	0/1
3486	29073	Astegic, Inc.	2/4	0/1
3487	29073	Tquate Inc.	0/4	0/1
3488	29073	Kunj, Inc.	0/4	0/1
3489	29073	Palpilot International Corporation	0/4	0/1
3490	29073	Devcool	0/5	-
3491	29073	Teleplan Holding Usa, Inc.	1/5	-
3492	29073	Fluid, Inc.	0/5	-
3493	29073	Scubel, Llc.	0/5	-
3494	29073	Beltech, Inc.	0/4	0/1
3495	29073	Systems Plus, Inc.	0/5	-
3496	29073	Folio Dynamics Inc.	0/4	0/1
3497	29073	Intellect Solutions Llc	0/5	-
3498	29073	Digilant, Inc.	0/4	0/1
3499	29073	Agencyq, Inc.	0/4	0/1
3500	29073	Kee-Aree, Llc	2/3	0/2
3501	29073	Sumedha Global Computing	1/5	-
3502	29073	Siltek Corporation	5/5	-
3503	29073	Cybersearch, Ltd.	1/4	1/1
3504	29073	Jba International, Llc	1/4	0/1
3505	29073	Smartdog Services, Llc (Formerly Dcc Services, Llc	1/3	0/2
3506	29073	Robotex, Inc.	0/3	0/2
3507	29073	World-Link Communications, Inc.	1/4	0/1
3508	29073	Aquent Llc	-	0/5
3509	29073	Searce Inc	0/4	0/1
3510	29073	Terra Technology, Llc	0/5	-
3511	29073	Nexlink Systems Inc	0/4	0/1
3512	29073	Dawar Consulting Inc	1/5	-
3513	29073	Claims Services Group, Inc.	-	1/5
3514	29073	Backstop Solutions Group, Llc	0/4	0/1
3515	29073	Catapult Systems, Llc	0/5	-
3516	29073	Sagents Inc	0/5	-
3517	29073	Ecoinsight, Inc.	0/4	0/1
3518	29073	Project Partners, Llc	1/4	0/1
3519	29073	Transzap, Inc.	0/4	0/1
3520	29073	Managed Staffing Inc.	0/5	-
3521	29073	Asentinel, Llc	0/3	0/2
3522	29073	Accruent Llc	0/4	0/1
3523	29073	Satnam Data Systems Inc	0/5	-
3524	29073	Talentlink, Inc	0/4	0/1
3525	29073	Pacific Underwater Observatories, Inc.	-	1/5
3526	29073	Actian Corporation	0/5	-
3527	29073	Pontis Research, Inc.	0/4	0/1
3528	29073	Icad, Inc.	0/5	-
3529	29073	Compliance Technologies International, Llp	0/1	2/4
3530	29073	Better Minds Consulting, Llc	0/5	-
3531	29073	Simplion Technologies, Inc.	1/5	-
3532	29073	Radiqal Llc	0/4	0/1
3533	29073	Long View Systems	0/3	0/2
3534	29073	Relational Security Corporation	0/4	0/1
3535	29073	Infosys International Inc.	0/4	0/1
3536	29073	Nanigans, Inc.	0/2	0/3
3537	29073	Connex Info Systems, Inc	0/4	0/1
3538	29073	Tristar Consultancy Inc	0/5	-
3539	34122	Fidelis Pro Solutions Inc	0/2	2/2
3540	34122	Datazoomers Inc	0/3	0/1
3541	34122	Promag Systems, Inc	0/4	-
3542	34122	Integrated Computer Solutions, Inc.	0/4	-
3543	34122	Fsv Payment Systems, Inc.	0/2	1/2
3544	34122	T&L Hospitality Inc	1/3	0/1
3545	34122	Metrostar Systems, Inc.	0/3	0/1
3546	34122	Fishbowl, Inc.	0/3	0/1
3547	34122	Temple Systems Llc	0/4	-
3548	34122	Aarki, Inc.	1/2	0/2
3549	34122	Compass Solutions, Llc	1/4	-
3550	34122	Amber Precision Instruments, Inc	0/4	-
3551	34122	Autoalert, Inc.	0/4	-
3552	34122	Jinfonet Software Inc	1/4	-
3553	34122	Netxperts, Inc.	0/3	0/1
3554	34122	Jarus Technologies, Inc.	0/4	-
3555	34122	Idx, Llc	0/3	0/1
3556	34122	Stockell Information Systems, Inc.	0/4	-
3557	34122	Wideorbit Inc.	0/4	-
3558	34122	Sofia Technology, Llc	1/4	-
3559	34122	Alpine Analytics, Inc.	2/3	0/1
3560	34122	R.O.I. Consulting Solutions, Inc	0/1	1/3
3561	34122	Viraj Consulting	0/4	-
3562	34122	Turing Systems Inc	1/4	-
3563	34122	Osprey Software & Systems, Inc.	-	0/4
3564	34122	Miami Sunny, Inc.	0/2	1/2
3565	34122	Thai Maker Llc Dba/ My Thai Place Restaurant	-	0/4
3566	34122	Versa Shore, Inc.	0/4	-
3567	34122	Triplay Inc.	0/3	0/1
3568	34122	Thekla, Inc.	0/3	0/1
3569	34122	Siddhi Systems, Inc.	0/4	-
3570	34122	Kikuhisa Corp Dba Anjin	-	1/4
3571	34122	Utc Associates Inc.	0/4	-
3572	34122	Astron Consulting Llc	0/4	-
3573	34122	The Goldensource Corporation	0/3	1/1
3574	34122	South Florida Lodging, Llc	0/1	0/3
3575	34122	Tech Allies Consulting	1/4	-
3576	34122	Dibon Solutions Inc	1/4	-
3577	34122	Landry's Management, L.P.	0/3	0/1
3578	34122	Pitss America Llc	0/3	1/1
3579	34122	Clustrix, Inc.	0/3	0/1
3580	34122	Workspot, Inc.	0/3	0/1
3581	34122	Technitia, Inc.	1/4	-
3582	34122	Ascend Software, Inc.	0/4	-
3583	34122	Middlelink Technologies Llc	1/4	-
3584	34122	Globalsource Information Technology, Inc.	0/4	-
3585	34122	Assure E Services Inc	0/4	-
3586	34122	Nexxus Technologies Inc.	0/4	-
3587	34122	Technijian Inc.	1/4	-
3588	34122	Argo Se, Inc.	0/2	0/2
3589	34122	Elite Infosystems, Inc	0/4	-
3590	34122	Infotech Enterprises America, Inc.	0/3	0/1
3591	34122	Oneneck It Services Corporation	0/4	-
3592	34122	Swinsoft, Inc.	0/4	-
3593	34122	Open Solutions, Llc	1/4	-
3594	34122	Myers Holum, Inc.	0/4	-
3595	34122	Nextivity, Inc.	0/4	-
3596	34122	Blue Star Infotech America, Inc	3/4	-
3597	34122	Melillo Consulting, Inc.	0/3	0/1
3598	34122	Neutron, Inc.	0/3	0/1
3599	34122	Worldlink, Inc.	2/4	-
3600	34122	Nimbus Consulting Llc	0/4	-
3601	34122	E-Line Technologies, Inc.	0/4	-
3602	34122	Atsec Information Security Corp.	0/3	0/1
3603	34122	Mdm Hotel Group Ltd/Miami Dadeland Marriott Hotel	0/2	0/2
3604	34122	Donahue Consulting Llc	0/3	0/1
3605	34122	M2s, Inc.	0/4	-
3606	34122	Hr Link Group, Inc.	0/4	-
3607	34122	Cybervision Inc	2/4	-
3608	34122	Autotec, Llc	2/4	-
3609	34122	Infotech Global, Inc.	0/3	0/1
3610	34122	Backbase U.S.A. Inc.	1/4	-
3611	34122	Mercom Group, Llc	1/4	-
3612	34122	Vm Strategies, Llc	0/4	-
3613	34122	Say Media, Inc.	0/2	0/2
3614	34122	Bocavox, Llc	1/4	-
3615	34122	Sath Technologies Inc.	1/4	-
3616	34122	Strategic It Solutions, Inc.	0/4	-
3617	34122	Kms Technology, Inc.	0/1	0/3
3618	34122	Kabuki Restaurants,Inc.	-	1/4
3619	34122	Tammina Solutions Llc	0/4	-
3620	34122	Oneshield, Inc.	0/4	-
3621	34122	Infosol Inc.	0/3	0/1
3622	34122	Searchforce, Inc.	0/3	0/1
3623	34122	Application Development Corp	0/4	-
3624	34122	Bitsofcode Software Systems, Inc.	0/2	1/2
3625	34122	Guadalupe Valley Telephone Cooperative	0/4	-
3626	34122	Atria Logic, Inc.	0/2	1/2
3627	34122	Computer Services, Inc.	0/3	0/1
3628	34122	Everest Solutions Group, Inc.	0/2	0/2
3629	34122	Mhill Consulting Llc	0/4	-
3630	34122	Trigent Software Inc.	0/4	-
3631	34122	Cashedge Inc.	0/4	-
3632	34122	Mangione, Inc.	0/2	0/2
3633	34122	Innovative Systems Group Of Florida, Inc.	0/4	-
3634	34122	Envision Financial Systems, Inc.	0/4	-
3635	34122	Techoptimus, Inc.	0/3	0/1
3636	34122	Yodle, Inc.	0/4	-
3637	34122	Fast Dolphin, Inc.	0/2	0/2
3638	34122	Metamarkets Group, Inc.	0/3	0/1
3639	34122	Grand Central Networks, Inc.	0/3	0/1
3640	34122	Parasoft, Inc.	0/4	-
3641	34122	Appway, Inc.	0/4	-
3642	34122	Bt Americas Inc.	0/2	0/2
3643	34122	Daugherty Systems, Inc.	0/4	-
3644	34122	Genesis Business Solutions, Inc.	0/3	0/1
3645	34122	Rk Technical Services, Inc	1/4	-
3646	34122	Cayzen Technologies	0/4	-
3647	34122	Boyle Software, Inc.	0/4	-
3648	34122	Daon, Inc	0/4	-
3649	34122	Support.Com, Inc.	0/3	0/1
3650	34122	Fattail, Inc.	0/3	0/1
3651	34122	Microautomation, Inc.	0/3	0/1
3652	34122	Jetbrains Inc.	0/1	0/3
3653	34122	Esac Inc	0/3	0/1
3654	34122	Icontrol Networks, Inc.	1/3	1/1
3655	34122	Act Consulting	0/3	1/1
3656	34122	Trium Corporation	1/4	-
3657	34122	Arvato Systems Na,Inc.	0/2	0/2
3658	34122	T-Systems North America, Inc.	1/4	-
3659	34122	Key Software Solutions, Inc.	2/4	-
3660	34122	Genband Us Llc	0/2	0/2
3661	34122	Silkroad Technology Inc	0/4	-
3662	34122	Sandil Consulting Llc	1/4	-
3663	34122	Aaeon Electronics, Inc.	0/3	0/1
3664	34122	Logan Productions, Inc.	0/4	-
3665	34122	Dakota Systems, Inc.	0/3	0/1
3666	34122	Kuberre Systems, Inc.	0/3	0/1
3667	34122	Fdg Consulting Firm Inc.	0/4	-
3668	34122	Kum Gang, Inc.	-	2/4
3669	34122	Comtek International, Inc.	0/4	-
3670	34122	4 Best Business Corp.	0/1	0/3
3671	34122	Ambonare Incorporated	0/4	-
3672	34122	Sling Media, Inc.	0/1	0/3
3673	34122	Electronic Knowledge Interchange Company	0/3	0/1
3674	34122	Rmantra Solutions Inc.	0/3	0/1
3675	34122	Pixel Systems Inc	0/4	-
3676	34122	Cwc Travel, Inc.	0/3	1/1
3677	34122	Ifs North America, Inc.	0/3	0/1
3678	34122	Yantrasoft Inc.	0/3	0/1
3679	34122	Netlims Nj Llc	0/2	1/2
3680	34122	Columbus Networks Usa, Inc.	0/3	0/1
3681	34122	Educational Networks, Inc.	0/4	-
3682	34122	Annuk Incorporated	0/3	1/1
3683	34122	Kaneko Enterprises,Inc.	-	0/4
3684	34122	Diebold, Incorporated	0/3	0/1
3685	34122	Orion Systems, Inc.	0/2	0/2
3686	34122	Samuraiinfotech	-	0/4
3687	34122	E - Infotek Solutions, Inc.	0/3	0/1
3688	34122	Global Infonet Inc.	1/4	-
3689	34122	Atoptech, Inc.	1/3	0/1
3690	34122	Wok' N Grill Rest	-	1/4
3691	34122	Airpoints, Inc.	0/3	0/1
3692	34122	Technosmarts, Inc.	0/4	-
3693	34122	Matrix Technologies, Inc.	0/3	0/1
3694	34122	Sts International, Inc.	2/4	-
3695	34122	Cardinal Technology Solutions Llc	0/4	-
3696	34122	Raintree Systems, Inc	0/3	0/1
3697	34122	Aria Consulting Services Llc	1/4	-
3698	34122	Universal Infotech, Inc.	0/3	0/1
3699	34122	Me-Interactive Llc	1/3	0/1
3700	34122	Kms Service Inc.	0/2	0/2
3701	34122	Serazen,Llc	1/3	0/1
3702	34122	Emtec, Inc.	0/1	2/3
3703	34122	Fahrenheit It	0/3	0/1
3704	34122	Ecifm Solutions, Inc.	0/2	1/2
3705	34122	Pci-Media Impact, Inc	0/3	0/1
3706	34122	Insurance Data Processing, Inc.	0/4	-
3707	34122	Relevant Ads, Inc.	0/2	0/2
3708	34122	Bamm Inc.	0/3	0/1
3709	34122	Charles Bros., Inc Iii	0/3	0/1
3710	34122	Glomark International, Llc	0/3	1/1
3711	34122	Rv Information Technology Inc.	0/4	-
3712	34122	The Olama Corporation	-	0/4
3713	34122	Micronotes Inc.	0/2	0/2
3714	34122	Telesys Software, Inc.	0/3	0/1
3715	34122	M-Files Inc.	0/4	-
3716	34122	New Generation Computing, Inc.	0/4	-
3717	34122	Dst Brokerage Solutions, Llc	0/4	-
3718	42364	Sanama, Llc. Dba Best Western Westminster Inn	-	0/3
3719	42364	Elephant Bytes Inc	0/3	-
3720	42364	Ifactor Consulting, Inc.	0/1	0/2
3721	42364	Hornet Animation Inc.	0/2	0/1
3722	42364	Camo Technologies, Inc	-	3/3
3723	42364	Assaggi Osteria Llc	-	1/3
3724	42364	Owen Software Development Company Limited	0/3	-
3725	42364	Sushi Yasuda Ltd.	-	0/3
3726	42364	Image Metrics, Inc.	0/2	0/1
3727	42364	Tranzxn, Inc.	1/3	-
3728	42364	Beam4d Enterprises, Llc	0/3	-
3729	42364	Smallplanet Digital, Llc	0/3	-
3730	42364	Kddi Global L.L.C.	0/2	0/1
3731	42364	Pro Softnet Corporation	-	0/3
3732	42364	Techaffinity Inc	0/3	-
3733	42364	Vertex Soft, Inc.	0/3	-
3734	42364	Shanghai Garden Of Sacramento 888, Inc.	-	0/3
3735	42364	Mmtech, Inc.	0/3	-
3736	42364	Vigor Systems, Inc.	0/2	0/1
3737	42364	Rolta International, Inc.	0/2	0/1
3738	42364	Business Resources Ltd	0/3	-
3739	42364	Return Path, Inc.	0/3	-
3740	42364	Pinnacle Consulting Llc	0/3	-
3741	42364	Alexcon Corp	-	0/3
3742	42364	Bijal Corporation	0/3	-
3743	42364	Ping Identity Corporation	0/2	0/1
3744	42364	Access Development Corporation (Vg Llc)	0/3	-
3745	42364	Sazze, Inc.	0/2	0/1
3746	42364	Gwynn Group, Inc.	0/2	0/1
3747	42364	Itas Inc	1/3	-
3748	42364	Total Tennis Saugerties Ny Llc	0/3	-
3749	42364	Vinpower, Inc.	0/1	1/2
3750	42364	The 41st Parameter, Inc.	0/3	-
3751	42364	Pmc Outsourcing Inc.	0/2	0/1
3752	42364	Celltrust Corporation	0/2	0/1
3753	42364	Apple Corporation D/B/A Canton Palace	-	0/3
3754	42364	Favis Usa, Inc.	0/1	0/2
3755	42364	Raawee Inc.	0/3	-
3756	42364	Peet's Coffee & Tea	-	0/3
3757	42364	Alta Via Consulting, Llc	0/1	1/2
3758	42364	Cyberdata Technologies, Inc.	0/2	0/1
3759	42364	Data Computer Corporation Of America	0/2	1/1
3760	42364	Compusearch Software Systems, Inc.	0/2	0/1
3761	42364	Timetrade Systems, Inc.	1/3	-
3762	42364	Comnet (Usa) Llc	0/3	-
3763	42364	Sai Business Solutions Llc, Dba Sbs Corp	-	0/3
3764	42364	Mediware Software Corporation	0/3	-
3765	42364	Midcontinent Communications	0/3	-
3766	42364	Plda, Inc.	0/2	0/1
3767	42364	Mednet Solutions, Inc.	0/3	-
3768	42364	White Wings Consulting Llc	0/2	0/1
3769	42364	Inteliops, Inc.	0/2	0/1
3770	42364	Integrated Communications & Technologies, Inc.	-	0/3
3771	42364	Lattice Group, Inc.	0/2	1/1
3772	42364	Candelis, Inc.	0/3	-
3773	42364	Qed Inc.	0/2	0/1
3774	42364	Needa Technologies, Inc.	0/3	-
3775	42364	Grapecity, Inc.	1/3	-
3776	42364	Ssinfotek Inc.	1/3	-
3777	42364	Empower Micro Systems, Inc.	0/3	-
3778	42364	Club Speed, Inc.	0/3	-
3779	42364	Bombay Cafe, Inc.	1/2	0/1
3780	42364	Advanced Data Systems	0/3	-
3781	42364	Kyochon Usa, Inc.	0/2	0/1
3782	42364	Anham Usa, Inc.	0/2	1/1
3783	42364	Ehana Llc	0/1	2/2
3784	42364	Farragut Systems, Inc.	0/2	0/1
3785	42364	Mindfire Internet Solutions, Inc	0/3	-
3786	42364	Prodea Systems, Inc.	0/3	-
3787	42364	Kabuto Inc.	-	0/3
3788	42364	Srilu Information Systems Inc.	0/2	0/1
3789	42364	Applied Software, Inc.	0/3	-
3790	42364	Sushi Boy, Inc.	-	0/3
3791	42364	Dm Services, Inc.	0/2	0/1
3792	42364	Korea House Restaurant, Inc.	-	1/3
3793	42364	Netser Computer International Inc	0/2	0/1
3794	42364	Volusion, Inc.	0/1	0/2
3795	42364	Fedbid, Inc.	1/3	-
3796	42364	National Computer Systems	-	0/3
3797	42364	Vest Inc	0/3	-
3798	42364	Integrated Systems Management, Inc.	0/3	-
3799	42364	Carevoyant, Inc.	0/3	-
3800	42364	Vidhwan Inc. Dba E-Solutions	-	0/3
3801	42364	Radinnova, Inc.	0/3	-
3802	42364	Macedon Consulting, Inc.	0/1	0/2
3803	42364	Nodus Technologies, Inc.	0/2	0/1
3804	42364	Ace Software Solutions, Inc.	0/3	-
3805	42364	Rockstar New England	-	0/3
3806	42364	Amsal Inc D/B/A Tech Chiefs Group	0/2	0/1
3807	42364	Zachary Piper Llc	1/3	-
3808	42364	Professionals Llc	0/3	-
3809	42364	Enterprise Consulting Services Inc.	-	0/3
3810	42364	Red Maple Chinese Restaurant	-	0/3
3811	42364	Decision Ready Solutions, Inc.	0/1	0/2
3812	42364	Photobooks, Inc.	0/2	0/1
3813	42364	Glenwood Systems, Llc	0/3	-
3814	42364	Thinkinternational Llc	-	0/3
3815	42364	Microsolve Consulting, Inc.	0/2	1/1
3816	42364	Crgt Inc.	0/2	1/1
3817	42364	Striiv, Inc.	0/3	-
3818	42364	Kutir Corporation	0/3	-
3819	42364	Jkp Investment Corp	-	0/3
3820	42364	My Tech Us, Llc	0/3	-
3821	42364	Horizon Industries, Limited	0/3	-
3822	42364	Wayforward Technologies	1/3	-
3823	42364	Coremedia	0/3	-
3824	42364	Clearavenue Llc	0/2	0/1
3825	42364	Sprint Nextel Corporation	-	1/3
3826	42364	Meridium, Inc.	0/2	0/1
3827	42364	Fadel Partners, Inc.	0/2	0/1
3828	42364	Beach Head, Inc.	0/2	0/1
3829	42364	Gamevil Usa Inc	0/1	0/2
3830	42364	Ldiscovery, Llc	0/3	-
3831	42364	Piazza Technologies, Inc.	0/2	0/1
3832	42364	Balti International, Inc.	0/1	0/2
3833	42364	Compware Technologies	0/2	0/1
3834	42364	Synergy Systems & Services, Inc.	0/2	0/1
3835	42364	Aruba Networks, Inc.	-	3/3
3836	42364	Mresult Corporation	0/3	-
3837	42364	Mlogica Inc.	1/3	-
3838	42364	Bodhtree Solutions,Inc	0/3	-
3839	42364	Tera Technologies, Inc.	1/3	-
3840	42364	Pinnacle Entertainment, Inc.	2/3	-
3841	42364	Nasco, Llc	-	0/3
3842	42364	Itnovasys, Inc.	0/3	-
3843	42364	Adroit Business Solutions Inc.	0/3	-
3844	42364	Dpm Consulting Services, Inc.	0/3	-
3845	42364	Iopex Technologies, Inc.	0/3	-
3846	42364	Digitalsmiths Corporation	0/2	0/1
3847	42364	Instamed Communications Llc	0/2	0/1
3848	42364	Avant-Garde Consulting Services, Inc.	1/3	-
3849	42364	Sum-Tech, Inc.	0/3	-
3850	42364	Fischer International Identity, Llc	0/3	-
3851	42364	Netsemantics Inc.	0/3	-
3852	42364	Icann	-	0/3
3853	42364	Hub City Media Inc.	0/3	-
3854	42364	The Tri-Com Consulting Group, L.Lc.	0/3	-
3855	42364	Axis Technology, Llc	0/2	0/1
3856	42364	Riverside Technical Services Inc.	0/1	0/2
3857	42364	Uxc Eclipse Usa Inc.	0/3	-
3858	42364	Harris Local Government Solutions, Inc	0/2	0/1
3859	42364	Sony Computer Entertainment America Llc	1/3	-
3860	42364	Edgewater Technology - Ranzal, Inc.	1/3	-
3861	42364	Techieindex, Inc.	2/3	-
3862	42364	Insyte Llc	0/2	0/1
3863	42364	Tpa Benefits Inc.	0/3	-
3864	42364	Ebisu Enterprise Inc.	0/2	0/1
3865	42364	Solutionsiq	0/3	-
3866	42364	Isphere Innovation Partners, Llc	0/2	0/1
3867	42364	Sophisticated Systems, Inc.	0/3	-
3868	42364	Infinity Software Development, Inc.	0/3	-
3869	42364	Eureka Technocrats, Inc.	1/3	-
3870	42364	Siam River Thai And Japanese, Inc.	0/2	0/1
3871	42364	Satmetrix Systems, Inc.	0/3	-
3872	42364	Akshar Donut Corporation	1/3	-
3873	42364	Labyrinth Solutions, Inc.	0/3	-
3874	42364	Bitalign, Inc., Dba Grio	1/3	-
3875	42364	Dakota Consulting, Incorporated	-	0/3
3876	42364	Take Sushi, Inc.	-	1/3
3877	42364	Comtech, Llc	0/3	-
3878	42364	Informatica Corporation	2/2	1/1
3879	42364	Dehin Systems Inc.	0/3	-
3880	42364	Digital Management Inc.	0/1	0/2
3881	42364	Big Red Button Entertainment, Inc.	1/3	-
3882	42364	Technology Software Inc	0/3	-
3883	42364	Mistral Solutions, Inc	-	0/3
3884	42364	Maxis Group, Inc.	-	1/3
3885	42364	Good Technology Corporation	-	1/3
3886	42364	Smx Services & Consulting, Inc	0/1	0/2
3887	42364	Absolute Global Integration Corp.	-	0/3
3888	42364	Zenergy Technologies	0/2	0/1
3889	42364	Darsh Consultancy Services Llc	1/3	-
3890	42364	Profisee Group, Inc.	1/3	-
3891	42364	Kamakura Corporation A Delaware Corporation	0/2	0/1
3892	42364	Gravitas Technology Services, Llc	2/3	-
3893	42364	Kimpton Hotel And Restaurant Group, Llc	0/2	0/1
3894	42364	En Masse Entertainment Inc.	-	1/3
3895	42364	Eze Castle Integration, Inc.	0/3	-
3896	42364	Trizetto Corporation	-	0/3
3897	42364	Crisp Media, Inc.	0/2	0/1
3898	42364	Wrapido Corporation	0/2	0/1
3899	42364	Wicresoft North America	-	0/3
3900	42364	Web-Tech Solutions, Inc.	1/3	-
3901	42364	Technosphere Inc.	1/3	-
3902	42364	Red Storm Entertainment	0/2	0/1
3903	42364	Paragon Consulting Inc.	0/2	0/1
3904	42364	Lakhani Hospitality, Inc.	0/1	0/2
3905	42364	Yv Technologies Inc	2/3	-
3906	42364	Xfi Corporation	0/2	0/1
3907	42364	Radi Tech	0/2	1/1
3908	42364	Actium Consulting Inc.	0/1	0/2
3909	42364	Rpost Us, Inc.	1/3	-
3910	42364	Sanbeans	-	1/3
3911	42364	Connectivity Wireless, Inc.	0/3	-
3912	42364	Telcordia Technologies, Inc.	0/3	-
3913	42364	Exacta Corporation	0/2	0/1
3914	42364	Istonish, Inc.	1/2	0/1
3915	42364	Ei Systems Corp.	-	0/3
3916	42364	Namtra Business Solutions, Inc	0/3	-
3917	42364	Nvish Solutions Inc.	0/2	0/1
3918	42364	Brighterion, Inc.	-	2/3
3919	42364	Mifi Systems Inc	0/3	-
3920	42364	Strategic Resource Partners, Inc.	2/3	-
3921	42364	Liberty Consulting And Management Services	1/3	-
3922	42364	Fourans Llc	0/3	-
3923	42364	Intupoint Inc. Dba Pointel	-	0/3
3924	42364	Miracle Systems Llc	0/3	-
3925	42364	Freedom Scientific Blv Group Llc	0/1	0/2
3926	42364	Technology People Inc	1/2	0/1
3927	42364	Bittorrent, Inc.	0/1	0/2
3928	56066	Ancile Solutions, Inc.	0/1	0/1
3929	56066	Horizon Solutions Llc	0/2	-
3930	56066	Jaypar Inc	-	1/2
3931	56066	Itlogica, Inc.	0/2	-
3932	56066	Hima, Inc	0/1	0/1
3933	56066	Asap Solutions Group, L.L.C.	-	0/2
3934	56066	System Flux, Inc.	1/2	-
3935	56066	Platphorm, Llc	1/2	-
3936	56066	Global Micro Solutions Inc.	0/1	0/1
3937	56066	Estenda Solutions, Inc.	1/2	-
3938	56066	Magic Micro Computers, Inc.	0/1	0/1
3939	56066	Sdk Tech Corporation	0/2	-
3940	56066	Lucky Bamboo Chinese Restaurant	-	2/2
3941	56066	Fazal Development Network Inc. (Dba) Subway Restau	0/1	0/1
3942	56066	Relay 2 Inc	0/1	0/1
3943	56066	Pieran Llc	1/2	-
3944	56066	Dominion Voting Systems, Inc.	0/2	-
3945	56066	Graphics Microsystems, Inc.	0/2	-
3946	56066	Seascape Consulting Llc	0/2	-
3947	56066	Carousel Industries Of North America, Inc.	0/2	-
3948	56066	Itrays Inc.	0/2	-
3949	56066	Canam, Inc.	0/2	-
3950	56066	Infinio Systems	-	0/2
3951	56066	Appro Technology Inc.	0/2	-
3952	56066	Wizard Systems, Inc.	0/2	-
3953	56066	Tandoori Taste Of India, Inc.	0/2	-
3954	56066	New York Global Consultants Corp.	-	1/2
3955	56066	Scm Data, Inc	0/2	-
3956	56066	Ces Computer Solutions, Inc	0/2	-
3957	56066	Reel Inn Corporation	-	1/2
3958	56066	Abp Corporation D/B/A Au Bon Pain	-	0/2
3959	56066	Columbus It Partner Usa, Inc.	-	0/2
3960	56066	Axiom Group, Llc	0/2	-
3961	56066	Id Analytics, Inc.	0/2	-
3962	56066	Pr3 Systems, Inc.	0/1	0/1
3963	56066	Riya Hospitality, Llc	0/2	-
3964	56066	Ramsoft Systems, Inc.	0/2	-
3965	56066	Equal-Plus, Inc.	0/1	0/1
3966	56066	Nevada Kanko Service Inc.	-	0/2
3967	56066	Market Data Services Limited	0/1	0/1
3968	56066	Cohesion, Inc	0/2	-
3969	56066	Isi-Dentsu Of America, Inc.	-	0/2
3970	56066	Technosai Global Solutions Llc	0/2	-
3971	56066	Thai Bistro	-	0/2
3972	56066	Cloudmark, Inc.	0/1	1/1
3973	56066	Interactive Business Services Inc	-	1/2
3974	56066	Magnum Infotech Inc.	0/2	-
3975	56066	Farata Systems Llc	0/2	-
3976	56066	Cactus River, Inc.	0/2	-
3977	56066	Engenius Consulting Group, Inc.	0/2	-
3978	56066	Silicus Technologies, Inc.	-	1/2
3979	56066	Northwest Data Solutions Llc	0/1	1/1
3980	56066	Technical Information & Professional Solutions, In	-	1/2
3981	56066	Computech Systems, Inc.	-	2/2
3982	56066	Magna Systems International, Inc.	0/2	-
3983	56066	Juice, Incorporated	0/2	-
3984	56066	On-Net Surveillance Systems, Inc.	0/2	-
3985	56066	Networkfleet, Inc.	0/2	-
3986	56066	Tpg Consulting Llc	0/2	-
3987	56066	Burst.It, Llc	0/2	-
3988	56066	Epoch Solutions, Inc	0/2	-
3989	56066	Team Financial Management Systems, Inc.	0/1	0/1
3990	56066	Savana, Inc.	0/2	-
3991	56066	Cogent Techsol Llc	0/2	-
3992	56066	Aristotle International, Inc.	0/2	-
3993	56066	Lemko Corporation	0/2	-
3994	56066	Galindo Consulting Group, Inc.	0/2	-
3995	56066	Acqualina Management Llc	0/2	-
3996	56066	New Iron Group, Inc.	0/2	-
3997	56066	The Everest Llc Cuisine Of The Himalaya	-	0/2
3998	56066	Fresco Logic Inc.	0/1	0/1
3999	56066	Xenosoft Technologies, Inc	-	2/2
4000	56066	Logiclink, Inc.	0/2	-
4001	56066	Intelligent Capital Network, Inc.	0/1	0/1
4002	56066	Irdeto Usa, Inc.	0/2	-
4003	56066	Radgov Inc	0/2	-
4004	56066	Synectic Software Solutions, Inc.	0/1	1/1
4005	56066	Global American Staffing, Inc.	-	1/2
4006	56066	Mcr Investment Corporation	0/2	-
4007	56066	Beancube, Inc.	-	0/2
4008	56066	Accupoint Llc	0/1	0/1
4009	56066	Platfora, Inc.	-	1/2
4010	56066	Net Solutions North America	0/2	-
4011	56066	A Modo Mio Inc.	0/2	-
4012	56066	Sertifi, Inc.	0/2	-
4013	56066	Infina Connect Healthcare Systems, Inc	0/2	-
4014	56066	Automatic Data Processing, Inc.	-	2/2
4015	56066	Sylvan Corporation	0/2	-
4016	56066	Shopkeep.Com Inc.	0/2	-
4017	56066	Paranet Solutions, Llc	0/2	-
4018	56066	Ideas Enterprises	-	0/2
4019	56066	Wincere Inc.	0/2	-
4020	56066	Caspio, Inc.	0/1	1/1
4021	56066	Bloomberg Polarlake Usa Llc	0/1	0/1
4022	56066	Macrospect Inc	0/2	-
4023	56066	Winshuttle, Llc	0/2	-
4024	56066	Ziebel U.S. Inc.	0/2	-
4025	56066	Love Boat Group Inc.	-	0/2
4026	56066	Ace Communications Corp.	0/2	-
4027	56066	Electro-Tech Services, Inc.	-	0/2
4028	56066	Espoc, Inc.	0/2	-
4029	56066	Bestkey Solutions, Inc.	0/1	1/1
4030	56066	Praeses Llc	0/2	-
4031	56066	August Ninth Analyses, Inc.	0/2	-
4032	56066	Repeat Consultants, Llc	0/1	1/1
4033	56066	Systems Valet, Inc	0/2	-
4034	56066	Aquinas Consulting	0/2	-
4035	56066	Biodigital, Inc.	0/2	-
4036	56066	Customcall Data Systems, Inc.	1/2	-
4037	56066	Architecture Integration Management Inc.	0/2	-
4038	56066	Global Tunnels Limited Company	0/2	-
4039	56066	Edupoint Educational Systems, Llc	0/2	-
4040	56066	Igate Technologies Inc.	-	0/2
4041	56066	Duos Technologies, Inc.	-	1/2
4042	56066	Yashi Consulting Inc	0/2	-
4043	56066	Easyaum, Inc.	0/2	-
4044	56066	Metamation, Inc.	0/2	-
4045	56066	Just Games Interactive Entertainment, Llc	0/2	-
4046	56066	Advanced Digital Broadcast, Inc.	0/1	1/1
4047	56066	Quixey, Inc.	0/2	-
4048	56066	Teamsoft, Inc.	-	0/2
4049	56066	Gta Americas Llc	0/2	-
4050	56066	Inj Software Solutions Llc	0/1	1/1
4051	56066	Li's Chiam, Inc.	-	0/2
4052	56066	Nextec Operating Corp.	1/1	0/1
4053	56066	Grandeur Management Inc	-	1/2
4054	56066	Software Integration Services, Inc.	0/1	1/1
4055	56066	Virani Inc.	1/2	-
4056	56066	Nangate, Inc.	0/2	-
4057	56066	Chontong Llc	-	0/2
4058	56066	Cygate Software & Consulting Llc	0/2	-
4059	56066	Cyberobject Corporation	0/2	-
4060	56066	Mindwave Solutions Incorporated	-	0/2
4061	56066	Srvr, Llc	0/1	1/1
4062	56066	Noetix Corporation	0/2	-
4063	56066	Jtb Americas, Ltd.	-	0/2
4064	56066	Dlathe Llc	0/1	1/1
4065	56066	Hudson Valley Systems Solutions, Inc.	0/2	-
4066	56066	Navisite, Inc.	2/2	-
4067	56066	Haruno Japanese Sushi Bar & Grill	-	1/2
4068	56066	Vizuall, Inc.	0/2	-
4069	56066	Mh Consulting Llc	0/2	-
4070	56066	Infobean, Inc.	0/2	-
4071	56066	Falconstor, Inc.	0/2	-
4072	56066	Ampush Media, Inc.	0/2	-
4073	56066	Impact Innovations Systems, Inc.	0/2	-
4074	56066	Sathram Corporation	0/2	-
4075	56066	Ap's Kani, Inc.	-	0/2
4076	56066	Cornetta's Restaurant, Inc.	0/2	-
4077	56066	Streamingedge, Inc.	0/2	-
4078	56066	110 Water Street Series 274 Llc	-	0/2
4079	56066	Newgen Technologies, Inc.	0/2	-
4080	56066	Ye Li Investment, Inc.	-	0/2
4081	56066	Jys Solutions Inc	0/2	-
4082	56066	Bombay Club, Inc.	0/1	1/1
4083	56066	Affiliated Computer Services, Inc.	-	2/2
4084	56066	Eveo, Inc.	1/1	0/1
4085	56066	Skm Systems Analysis, Inc.	0/2	-
4086	56066	Computer Resource Solutions	1/2	-
4087	56066	Ilab, Llc	0/2	-
4088	56066	Echelon Studios, Inc.	0/1	0/1
4089	56066	Coleman Technologies, Inc.	0/2	-
4090	56066	Sicom Systems, Inc	0/2	-
4091	56066	Computer Technology Solutions, Inc.	0/2	-
4092	56066	Life Alert Emergency Response, Inc.	0/1	0/1
4093	56066	Advanced Logistics, Llc	0/1	0/1
4094	56066	Zignage Llc	0/2	-
4095	56066	Complete Professional Services	0/2	-
4096	56066	Nexera Solutions Llc	0/2	-
4097	56066	Tans Inc	-	0/2
4098	56066	Logmein, Inc.	0/1	0/1
4099	56066	Ned Davis Research, Inc.	-	0/2
4100	56066	Eqhealth Solutions	1/2	-
4101	56066	Jawid Inc. D/B/A Charcoal Kabob	-	0/2
4102	56066	Marinepolis Usa, Inc.	-	0/2
4103	56066	Arrowminds Inc	0/2	-
4104	56066	High Rise Fire Protection Corp.	0/1	1/1
4105	56066	Reval.Com	-	0/2
4106	56066	Acronis, Inc.	0/1	0/1
4107	56066	Spatial Business Systems, Inc.	0/1	0/1
4108	56066	Soliant Consulting, Inc.	0/2	-
4109	56066	Aramark Healthcare Support Services Llc	0/2	-
4110	56066	Art Consulting Llc	0/2	-
4111	56066	Optimiscorp	0/2	-
4112	56066	Prime Circle Technologies, Inc.	0/1	0/1
4113	56066	Pray Services, Llc	1/2	-
4114	56066	Critech Research, Inc.	0/2	-
4115	56066	Allsoft Technologies, Inc.	0/1	0/1
4116	56066	Jasstek, Inc.	1/2	-
4117	56066	Erp Center	0/1	0/1
4118	56066	Golden Partner Global Investment Inc.	-	1/2
4119	56066	Brightscope, Inc.	0/1	0/1
4120	56066	Ewise Systems Usa, Inc.	0/2	-
4121	56066	Seven Networks, Inc.	0/2	-
4122	56066	Tachys, Inc.	0/1	1/1
4123	56066	Apn Consulting Inc.	0/2	-
4124	56066	Kang Long Usa Corporation	0/2	-
4125	56066	Yantrik, Inc	0/2	-
4126	56066	Vistronix, Inc.	-	0/2
4127	56066	Markov Processes International, Llc.	0/1	0/1
4128	56066	Mgm Grand Hotel, Llc	0/2	-
4129	56066	Shafa Investment Group Llc	-	0/2
4130	56066	Trend Software, Inc.	0/1	0/1
4131	56066	Indrasoft, Inc.	1/2	-
4132	56066	Shivom Technology, Inc.	0/2	-
4133	56066	Epipro, Llc	0/1	0/1
4134	56066	Advanced Systems Design, Inc.	0/2	-
4135	56066	Comsoft Technologies, Llc	0/2	-
4136	56066	Concept Solutions, Llc	0/2	-
4137	56066	Idera Inc.	0/1	0/1
4138	56066	Intellimedia Networks, Inc.	0/2	-
4139	56066	Web Spiders, Inc.	1/2	-
4140	56066	Xlsoft Corporation	0/2	-
4141	56066	Boston - Softdesign	0/1	0/1
4142	56066	Creative Solutions Consulting, Inc.	0/2	-
4143	56066	Mytecsoft, Inc.	0/1	0/1
4144	56066	Telligen	0/2	-
4145	56066	Chateaux Software	0/2	-
4146	56066	Gridco, Inc.	0/2	-
4147	56066	Clearedge3d, Inc.	0/2	-
4148	56066	Enlightened Homes Llc	0/1	0/1
4149	56066	Info Targets Llc	-	2/2
4150	56066	Infosense Inc	0/1	0/1
4151	56066	Bio-Tree Systems, Inc.	0/2	-
4152	56066	Benu Networks, Inc.	0/2	-
4153	56066	Nexenta Systems, Inc.	0/1	0/1
4154	56066	Empower Software Solutions	0/2	-
4155	56066	Sunrise Hospitality, Inc.	0/2	-
4156	56066	Fastrak Softworks, Inc.	0/2	-
4157	56066	Systems Engineering Technologies Corporation	0/2	-
4158	56066	Peoplentech, Llc.	0/2	-
4159	56066	Iracing.Com Motorsport Simulations, Llc	0/1	0/1
4160	56066	Textplus, Inc.	0/1	0/1
4161	56066	Seneca Global Inc	0/2	-
4162	56066	Gts, Inc.	0/2	-
4163	56066	Sencha, Inc.	0/2	-
4164	56066	Ecova, Inc.	0/2	-
4165	56066	Insigma Us, Inc.	0/2	-
4166	56066	Technical Resources International, Inc.	0/1	0/1
4167	56066	Srt It Incorporated	-	1/2
4168	56066	Bicitis Group, Inc.	0/2	-
4169	56066	Scalar Usa, Inc.	0/2	-
4170	56066	Jit Resources Llc	-	0/2
4171	56066	Novasparks, Inc.	0/1	0/1
4172	56066	Prosperoware Llc	0/2	-
4173	56066	Pandera Systems Pllc	0/2	-
4174	56066	Blue Coat Systems Inc.	0/1	0/1
4175	56066	Mol Information Technology America Inc.	0/1	1/1
4176	56066	Systems Software Solutions, Inc	0/2	-
4177	56066	Leverx, Inc.	0/2	-
4178	56066	Sbmg Llc	0/2	-
4179	56066	Lmk Resources Inc.	0/1	1/1
4180	56066	Icare.Com Llc	1/2	-
4181	56066	Elizabeth Palmiter Recruiting, Inc.	0/1	1/1
4182	56066	Classic System Solutions, Inc.	0/2	-
4183	56066	Patti Engineering	-	0/2
4184	56066	Tkle, Inc. Dba Larry's Pizza Of Arkansas	-	0/2
4185	56066	Jolly Tinker, Inc.	0/2	-
4186	56066	Dckap Inc.	0/2	-
4187	56066	Sainergy Incorporated	-	0/2
4188	56066	Crossview, Inc.	0/1	0/1
4189	56066	Sahajanand Donuts Llc	0/2	-
4190	56066	Savvy Consulting, Llc	0/2	-
4191	56066	Mantis Technology Group Inc.	0/2	-
4192	56066	Api Inc.	0/2	-
4193	56066	Esgee Technologies Inc.	0/2	-
4194	56066	Oakwood Software Insurance Solutions, Llc	0/1	0/1
4195	56066	Inetxperts Corp Dba Get Real Health	-	0/2
4196	56066	Consilium1	0/1	0/1
4197	56066	Kmd Hospitality Management Llc	0/2	-
4198	56066	Ecommerce Industries, Inc.	0/2	-
4199	56066	Fugen It Solutions Inc	0/2	-
4200	56066	Recommind, Inc.	-	0/2
4201	56066	Findica, Inc.	0/2	-
4202	56066	Psa Realty Corp.	0/2	-
4203	56066	Vuecare Media, Llc	0/2	-
4204	56066	Ram Compu Creations Inc.	1/2	-
4205	56066	Sri Systems Inc	0/1	1/1
4206	56066	Red Ginger Chinese Restaurant, Inc.	0/2	-
4207	56066	Gnet Group, Llc	0/1	0/1
4208	56066	Aligned Development Strategies, Inc	1/2	-
4209	56066	Allen Systems Group, Inc.	0/1	0/1
4210	56066	On Air Solutions, Inc.	0/2	-
4211	56066	C-Systems Software, Inc.	0/2	-
4212	56066	Coordinates Operations Llc	0/2	-
4213	56066	Taste Of India	-	0/2
4214	56066	Mindjet Llc	0/2	-
4215	56066	Kapsch Trafficcom Ivhs Inc.	0/2	-
4216	56066	Metric - X, Llc	0/2	-
4217	56066	Vensoft Inc	0/1	0/1
4218	56066	Systems Integration & Development, Inc.	0/1	0/1
4219	56066	3dna Corp.	1/2	-
4220	56066	Noble Technologies Corporation	0/1	0/1
4221	56066	Beyondtrust Corporation	0/2	-
4222	56066	Hanbai,Inc.	-	0/2
4223	56066	Inventit Solutions Inc.	1/2	-
4224	56066	Opower, Inc.	1/1	0/1
4225	56066	New World Travel, Inc.	-	0/2
4226	56066	Uievolution, Inc.	-	0/2
4227	56066	Omniupdate, Inc.	0/2	-
4228	56066	Wear Abouts Apparel Inc.	0/2	-
4229	56066	Lil Italian Cafe Inc	-	0/2
4230	56066	Golden Donuts, Llc	0/2	-
4231	56066	Crossfire Consulting Corporation	0/2	-
4232	56066	Centroid Partners Llc	0/2	-
4233	56066	Vedic Soft Solutions Inc	-	2/2
4234	56066	Variq Corporation	0/2	-
4235	56066	Spectrum Technologies, Inc.	0/1	0/1
4236	56066	Techizen, Inc.	0/1	0/1
4237	56066	Casi Group Inc	0/2	-
4238	56066	S-Bro International, Inc	-	0/2
4239	56066	Neocol Inc.	0/2	-
4240	56066	Internet Testing Systems, Llc	0/2	-
4241	56066	Anup Inc.	1/2	-
4242	56066	Usa Corporate Services, Inc.	0/2	-
4243	56066	Essex Management, Llc	0/2	-
4244	56066	Vinny's Italian Grill & Pizzeria	-	0/2
4245	56066	A & D Hotels Llc	0/2	-
4246	56066	Ib Technology Solutions Inc.	-	0/2
4247	56066	Sysofni Solutions, Inc	0/2	-
4248	56066	Csoft Technologies, Lp	1/2	-
4249	56066	Cokinetic Systems Corp.	0/2	-
4250	56066	Hansen Icc Llc	0/2	-
4251	84265	Pace Americas, Inc.	-	0/1
4252	84265	Information Gateways, Inc.	0/1	-
4253	84265	Tejas Technologies Inc	0/1	-
4254	84265	Gearbox Software	-	0/1
4255	84265	Tridea Partners Llc	-	0/1
4256	84265	Planned Systems International, Inc.	-	0/1
4257	84265	Redmon Group Inc	0/1	-
4258	84265	Vizrt, Inc.	-	0/1
4259	84265	Prometheus Research, Llc	0/1	-
4260	84265	Stanford Techology Partners Inc.	0/1	-
4261	84265	S&H Business Management, Inc.	-	1/1
4262	84265	My Ciright, Inc.	0/1	-
4263	84265	Global Tech & Resources, Inc.	0/1	-
4264	84265	American Cadastre Llc	-	1/1
4265	84265	Blink Consulting, Inc.	-	1/1
4266	84265	Guidancetek, Inc.	-	1/1
4267	84265	Preeminent Solutions, Inc.	0/1	-
4268	84265	Cyber Technology Group, Inc.	0/1	-
4269	84265	Cellular Direct Incorporated	-	0/1
4270	84265	Infragistics, Inc.	0/1	-
4271	84265	Apigee Corporation	0/1	-
4272	84265	Agistix, Inc.	0/1	-
4273	84265	Crunchtime! Information Systems, Inc.	0/1	-
4274	84265	Chickpea	-	1/1
4275	84265	Cryptic Studios, Inc.	0/1	-
4276	84265	Kdfmc	-	1/1
4277	84265	Intellisist, Inc. Dba Spoken Communications	-	0/1
4278	84265	Vivantech, Inc.	0/1	-
4279	84265	Ponte Vecchio Of Danvers	-	1/1
4280	84265	Jbc Software & Consulting, L.L.C.	0/1	-
4281	84265	Future Technology Associates, Llc	0/1	-
4282	84265	Shellsoft, Inc.	0/1	-
4283	84265	Ghar-E-Kabab Llc	-	1/1
4284	84265	Hyundai Information Service North America Llc	-	1/1
4285	84265	Ram Infotek Inc	0/1	-
4286	84265	Wherescape Usa, Inc.	0/1	-
4287	84265	Mbira Technologies, Llc	0/1	-
4288	84265	Cinetic Media Llc	0/1	-
4289	84265	Ferry Farm Pizzeria, Inc.	-	0/1
4290	84265	Like In France Cafe, Inc.	-	0/1
4291	84265	Interlink Network Systems	0/1	-
4292	84265	Supna Technologies Corporation	-	0/1
4293	84265	Badgeville, Inc.	0/1	-
4294	84265	Aner Group, Inc.	0/1	-
4295	84265	Met Ii Hotel, Llc	0/1	-
4296	84265	Hospitality Ventures Management, Llc	1/1	-
4297	84265	Mophie Llc	-	1/1
4298	84265	Touchtone Corporation	-	0/1
4299	84265	B Ventures Usa Llc	-	0/1
4300	84265	Time Space, Inc	-	0/1
4301	84265	Datavision Technologies, Inc.	0/1	-
4302	84265	Agora Group, Inc.	-	1/1
4303	84265	Interface Masters Technologies, Inc.	0/1	-
4304	84265	Data Softech Inc.	0/1	-
4305	84265	Pfs, Inc.	-	0/1
4306	84265	Info724 Ltd	0/1	-
4307	84265	Sourcemedical	0/1	-
4308	84265	Kroll Ontrack, Inc.	0/1	-
4309	84265	Continuous Control Solutions, Llc	-	0/1
4310	84265	Skytech Solutions Llc	0/1	-
4311	84265	2wire, Inc.	0/1	-
4312	84265	Inverra, Inc.	0/1	-
4313	84265	Med It Associates, Llc	0/1	-
4314	84265	G2 Technologies Inc.	0/1	-
4315	84265	Cinemat, Inc.	-	0/1
4316	84265	Sungard Consulting Services Llc	-	1/1
4317	84265	Lers Ros, Inc.	-	0/1
4318	84265	Sukhmani Corp Dba Worldnet Consulting Services	0/1	-
4319	84265	Dimension Systems, Inc.	0/1	-
4320	84265	Redysoft Inc	0/1	-
4321	84265	Schakra, Inc.	0/1	-
4322	84265	Nenix Corporation	-	0/1
4323	84265	Iovista, Inc.	0/1	-
4324	84265	Sk Infotech Llc	0/1	-
4325	84265	Datamine Internet Marketing Solutions, Inc.	-	0/1
4326	84265	Hong Kong Noodle Restaurant Inc	-	0/1
4327	84265	Miria Systems, Inc.	0/1	-
4328	84265	Dataform Software Inc.	0/1	-
4329	84265	B.C.D. Tofu House, Inc.	-	0/1
4330	84265	Verge It	0/1	-
4331	84265	Sandata Technologies Llc	-	0/1
4332	84265	Pinkerton Consulting &Investigations	-	0/1
4333	84265	Zebra-Net Inc., Llc	-	0/1
4334	84265	Aqua Systems Inc.	0/1	-
4335	84265	Ustas Technologies, Inc.	-	0/1
4336	84265	N-Tier Solutions, Inc.	0/1	-
4337	84265	Arti Inc	0/1	-
4338	84265	Refund Plan	-	1/1
4339	84265	Kho Corp. Dba Ohgane	-	0/1
4340	84265	Comspark International, Inc.	-	1/1
4341	84265	Newmarket International, Inc.	0/1	-
4342	84265	Cady's Alley Restaurant Concepts	-	0/1
4343	84265	Solarwinds Worldwide, Llc	1/1	-
4344	84265	Ellipse Solutions, Llc	-	0/1
4345	84265	Openwave Systems, Inc.	-	0/1
4346	84265	Yahasoft, Inc.	0/1	-
4347	84265	Vti Instruments Corporation	0/1	-
4348	84265	Emergint Technologies, Inc.	1/1	-
4349	84265	Atlanta International Travel, Inc	0/1	-
4350	84265	Landesk Software, Inc.	0/1	-
4351	84265	Brij Image And Information Inc.	-	0/1
4352	84265	Satkaara Llc Dba Wisgenx	-	0/1
4353	84265	A&N Consulting, Llc	0/1	-
4354	84265	Next It Corporation	0/1	-
4355	84265	Erickson Living Management, Llc	0/1	-
4356	84265	Mgm Hotels, Llc	0/1	-
4357	84265	Courion Corporation	1/1	-
4358	84265	Sugita Foods, Inc.	-	0/1
4359	84265	Kale Softech, Inc.	0/1	-
4360	84265	Kaava Consulting Inc	0/1	-
4361	84265	Landmark Hotel Group, Llc	0/1	-
4362	84265	Thai Cottage Ii, Inc.	-	0/1
4363	84265	Unifiedsys Llc	0/1	-
4364	84265	Factory Sushi Japanese Restaurant.Inc	-	0/1
4365	84265	Thinkcentric, Inc.	0/1	-
4366	84265	Qimat R Goyal, Inc	0/1	-
4367	84265	Champion Hotels & Development Company Of Ok, Llc	-	0/1
4368	84265	Triangle Doughnuts Llc	0/1	-
4369	84265	Versify Solutions, Inc.	-	0/1
4370	84265	Etactics, Inc.	0/1	-
4371	84265	Rock Hill, Llc	0/1	-
4372	84265	Diyasoft Inc.	0/1	-
4373	84265	Catbird Networks, Inc.	-	0/1
4374	84265	Innowera Llc	0/1	-
4375	84265	Neoware, Inc	0/1	-
4376	84265	Chi Tung Restaurant Inc.	-	0/1
4377	84265	Shyle Networks Llc	0/1	-
4378	84265	True Ultimate Standards Everywhere, Inc. (Truste)	-	0/1
4379	84265	Solution Partners Na Llc	-	0/1
4380	84265	Rock Solid Technologies, Inc.	0/1	-
4381	84265	Acg Tech Systems, Inc.	0/1	-
4382	84265	Ledge Light Technologies, Inc.	0/1	-
4383	84265	Legacy Effects, Llc	0/1	-
4384	84265	Genus Technologies, Llc	-	0/1
4385	84265	Intervoice, Inc.	-	0/1
4386	84265	Backupify, Inc.	0/1	-
4387	84265	Coyote Flaco Llc	-	1/1
4388	84265	Advanced Technology Consultants, Llc	0/1	-
4389	84265	Technology Advisors, Inc.	-	1/1
4390	84265	Webfinance, Inc.	0/1	-
4391	84265	Maxonic	-	1/1
4392	84265	Fusion Technologies Llc	0/1	-
4393	84265	Logicube, Inc.	0/1	-
4394	84265	Akbar Restaurant Inc	-	1/1
4395	84265	Rites Llc	0/1	-
4396	84265	Stele Corporation	0/1	-
4397	84265	Viseo Usa,Inc.	-	0/1
4398	84265	Sify Technologies Limited	0/1	-
4399	84265	Aptec, Llc	1/1	-
4400	84265	Real Magnet, Llc	0/1	-
4401	84265	Facile Soft Solutions, Inc	0/1	-
4402	84265	Skyscape.Com, Inc.	-	1/1
4403	84265	Szechuan Chinese Restaurant Inc	-	0/1
4404	84265	Blue Skies Consulting, Inc.	-	0/1
4405	84265	Advanced Computer Learning Company, Llc	0/1	-
4406	84265	Conducive Consulting, Inc.	0/1	-
4407	84265	Krijal Softek, Inc.	0/1	-
4408	84265	Zorlu Usa, Inc	-	0/1
4409	84265	Admobius, Inc.	0/1	-
4410	84265	Navman Wireless North America Lp	0/1	-
4411	84265	Profcon Inc	0/1	-
4412	84265	Wave Technology Solutions Group	-	0/1
4413	84265	Brightstarr Us Inc.	0/1	-
4414	84265	Reliance Communications, Inc.	0/1	-
4415	84265	Enrich Llc	-	1/1
4416	84265	Rapidflow Apps Inc.	-	1/1
4417	84265	Bae Systems	-	0/1
4418	84265	Pc-Doctor, Inc.	0/1	-
4419	84265	Kt America Inc.	-	0/1
4420	84265	Arn Solutions Inc.	0/1	-
4421	84265	Corbus Llc	0/1	-
4422	84265	Remote Dba Experts, Llc	0/1	-
4423	84265	Adeptone Technologies Inc	0/1	-
4424	84265	Caesars Entertainment Operating Company, Inc.	0/1	-
4425	84265	Kardin Systems, Inc.	0/1	-
4426	84265	Incion Llc	0/1	-
4427	84265	Sybis Llc	0/1	-
4428	84265	Echostar Broadcasting Corporation	-	0/1
4429	84265	Tops Software Corporation	0/1	-
4430	84265	Network Thinking Solutions, Inc.	0/1	-
4431	84265	American Leisure Sport, Inc.	-	0/1
4432	84265	Four Seasons Tours & Travel, Inc.	-	0/1
4433	84265	Keynote Systems, Inc.	1/1	-
4434	84265	Fusion Technology Group, Inc	0/1	-
4435	84265	Cionsystems Inc.	0/1	-
4436	84265	Tritek Solutions, Inc.	0/1	-
4437	84265	Gigaforce, Inc.	0/1	-
4438	84265	Opus Software Solutions Inc.	-	1/1
4439	84265	Aspire Logix Solutions, Inc.	0/1	-
4440	84265	Msi Controls, Inc.	0/1	-
4441	84265	Iq Infotek, Inc	0/1	-
4442	84265	Tti Of Usa Inc.	0/1	-
4443	84265	Appperfect Corporation	-	0/1
4444	84265	Euro Pizza Of Briarcliff Manor Corp.	-	0/1
4445	84265	Ubermedia, Inc.	0/1	-
4446	84265	B.T.Solutions Inc Dba Biztech Solutions Inc	-	0/1
4447	84265	Xinlab, Inc.	-	0/1
4448	84265	Veracity Consulting, Llc	0/1	-
4449	84265	Oscar Investors Management Corporation	0/1	-
4450	84265	Arcsoft Inc	-	0/1
4451	84265	Zarifa Inc	-	1/1
4452	84265	Al-Razaq Computing Services	0/1	-
4453	84265	Naughty Dog, Inc.	0/1	-
4454	84265	Dudas It Resources & Advisory, Inc.	0/1	-
4455	84265	Meiwah Restaurant (Hanka Llc)	-	0/1
4456	84265	Esker, Inc.	0/1	-
4457	84265	Centrepoint Inc.	-	0/1
4458	84265	Optimal Solutions Integration Inc.	-	1/1
4459	84265	B&R Industrial Automation Corporation	0/1	-
4460	84265	Nagoya, Inc.	-	0/1
4461	84265	Dynamic Voice Data, Inc.	0/1	-
4462	84265	Digital Designs, Inc	0/1	-
4463	84265	El Rancherito, Inc.	-	0/1
4464	84265	Ts Techno Service Inc.	0/1	-
4465	84265	Idea Solutions, Inc.	-	1/1
4466	84265	November Research Group, Llc	0/1	-
4467	84265	Vettanna, Llc	0/1	-
4468	84265	Sedona, Inc. D/B/A/ Sedona Technologies	-	0/1
4469	84265	Flipside Llc	0/1	-
4470	84265	Sr Labs Llc	-	0/1
4471	84265	Topquadrant, Inc.	-	0/1
4472	84265	Serbiz Inc	-	0/1
4473	84265	Rw3 Technologies Inc.	0/1	-
4474	84265	Globalnet Services, Inc.	-	0/1
4475	84265	International Palace Inc.	-	1/1
4476	84265	Suriya Systems, Inc.	-	1/1
4477	84265	Planet Technologies, Inc.	0/1	-
4478	84265	643dp, Inc.	-	0/1
4479	84265	Destinationrx, Inc.	0/1	-
4480	84265	Netvoyage Corporation	0/1	-
4481	84265	Savant Learning Systems, Inc.	-	0/1
4482	84265	Anderson Productions Inc	-	0/1
4483	84265	Jcf Tower, Inc. Dba: Spris Restaurant	-	1/1
4484	84265	America Digital Accessories, Inc.	-	0/1
4485	84265	Vedas	-	0/1
4486	84265	Denovo Services Llc	0/1	-
4487	84265	Sanrasoft Inc	-	1/1
4488	84265	Game Cafe Services Inc.	-	0/1
4489	84265	Alpha Technical Services, Inc.	0/1	-
4490	84265	Parilux Investment Technology Llc	0/1	-
4491	84265	Moxtek, Inc.	0/1	-
4492	84265	Mcpc, Inc.	0/1	-
4493	84265	Cbsc Llc	-	0/1
4494	84265	Eagle Test Systems, Inc.	0/1	-
4495	84265	Henglong Usa Corproation	-	0/1
4496	84265	Nexgenser, Llc	0/1	-
4497	84265	Mai's Garden Llc	-	0/1
4498	84265	Coughlan Inc	-	0/1
4499	84265	Cd Group, Inc.	0/1	-
4500	84265	Scrollmotion Inc.	0/1	-
4501	84265	Data3 Corp.	0/1	-
4502	84265	Zealtron Inc	-	1/1
4503	84265	Isa Software, Llc	0/1	-
4504	84265	Yamaguchi, Inc.	-	1/1
4505	84265	Full Moon Sushi	-	0/1
4506	84265	Process Global Inc.	0/1	-
4507	84265	Kok, Inc.	0/1	-
4508	84265	Accessdata Group Llc	-	0/1
4509	84265	Enterworks, Inc.	0/1	-
4510	84265	Kj Park, Inc.	-	0/1
4511	84265	Planet Dds, Inc.	0/1	-
4512	84265	Encentric, Inc.	-	0/1
4513	84265	Sabaidee Thailand Llc	-	1/1
4514	84265	Hmp Labs, Inc.	-	0/1
4515	84265	Alpine Audio Now, Llc	1/1	-
4516	84265	Psyonix Inc.	-	0/1
4517	84265	Ihms Llc	0/1	-
4518	84265	Via Veneto Pizza, Inc	-	1/1
4519	84265	Datalink Software Consultants, Inc	0/1	-
4520	84265	Crestline Hotels & Resorts	0/1	-
4521	84265	Fitechsource, Inc.	0/1	-
4522	84265	Cintel Systems,Inc	-	1/1
4523	84265	Iit Inc.	-	0/1
4524	84265	J9 Technologies Inc.	0/1	-
4525	84265	Deluxe Digital Studios, Inc.	-	1/1
4526	84265	Value Software Products Incorporated	0/1	-
4527	84265	Insideview Technologies, Inc.	0/1	-
4528	84265	Rafael, Inc.	-	0/1
4529	84265	Gt Nexus, Inc.	-	0/1
4530	84265	Sacc, Inc	-	0/1
4531	84265	Quodient, Inc.	-	1/1
4532	84265	Acer Cloud Technology Inc.	0/1	-
4533	84265	Golden C Inc. D/B/A Golden Sun Chinese Restaurant	-	0/1
4534	84265	Bourntec Solutions Inc.	-	1/1
4535	84265	Distek Integration, Inc.	-	0/1
4536	84265	Salvador Pena Inc	-	0/1
4537	84265	Scalable Network Technologies	-	0/1
4538	84265	Jdc Consulting, Inc.	-	0/1
4539	84265	Applied Information Technologies, Inc.	0/1	-
4540	84265	On-Ramp Wireless, Inc.	-	1/1
4541	84265	Technipros Llc	0/1	-
4542	84265	Merge Power Inc	0/1	-
4543	84265	3g Astute, Inc.	-	1/1
4544	84265	Geomagic, Inc.	-	1/1
4545	84265	Enterprise People, Inc.	0/1	-
4546	84265	Sal-Mark Restaurant Corp.	-	1/1
4547	84265	Fdc Solutions, Inc.	0/1	-
4548	84265	Arraya Solutions	0/1	-
4549	84265	Top5, Inc.	0/1	-
4550	84265	Ichiban, Inc.	-	0/1
4551	84265	Quark Software Inc	0/1	-
4552	84265	Duo Creative Communications Inc.	0/1	-
4553	84265	Fraioli & Associates Llc	-	1/1
4554	84265	Column Engineering Llc	0/1	-
4555	84265	Vimalraj, Inc	0/1	-
4556	84265	Magnet Systems, Inc.	0/1	-
4557	84265	World Networking Services, Inc	0/1	-
4558	84265	Information Technology Professionals, Inc.	0/1	-
4559	84265	China Town Express, Inc.	-	0/1
4560	84265	Northpoint Solutions, Llc	-	1/1
4561	84265	Bondedge Solutions, An Interactive Data Company	1/1	-
4562	84265	Armo Solutions Inc.	-	1/1
4563	84265	Alliance Life Sciences Consulting Group, Inc.	0/1	-
4564	84265	Bellsoft Inc.	-	0/1
4565	84265	Haverstick Consulting, Inc., A Kratos Company	0/1	-
4566	84265	Aos Legal Technologies, Inc.	-	0/1
4567	84265	Livetext, Inc.	-	0/1
4568	84265	Technotects, Inc.	0/1	-
4569	84265	Golden Crown Restaurant	-	0/1
4570	84265	Kimmy's Restaurant & Carry-Out Inc.	-	0/1
4571	84265	Promise Technology, Inc.	0/1	-
4572	84265	Helios And Matheson Information Technology Inc.	-	1/1
4573	84265	Kunal Llc	0/1	-
4574	84265	Realization Technologies, Inc.	0/1	-
4575	84265	Amphora, Inc.	0/1	-
4576	84265	Computer Data Source, Inc.	0/1	-
4577	84265	Nextconstruct, Inc.	0/1	-
4578	84265	La Quiche, Inc Dba La Bonne Soupe	-	0/1
4579	84265	Quantig Ibizlline Inc.	0/1	-
4580	84265	Nsc Global Llc	0/1	-
4581	84265	Skyfire Labs Inc	0/1	-
4582	84265	Solidthinking, Inc.	-	0/1
4583	84265	Gridstore, Inc.	0/1	-
4584	84265	Custom Information Services, Inc.	0/1	-
4585	84265	Infoserve Technologies Corp.	0/1	-
4586	84265	Ramp Holdings, Inc.	0/1	-
4587	84265	Internap Network Services Corporation	0/1	-
4588	84265	Jimmy John's Franchise, Llc	0/1	-
4589	84265	Pro Teck Services Ltd	0/1	-
4590	84265	The Rodenburg Group Inc.	-	0/1
4591	84265	Jetlore, Inc. F/K/A Qwhispr, Inc.	0/1	-
4592	84265	Voxiva, Inc.	0/1	-
4593	84265	Entrinsik, Inc.	0/1	-
4594	84265	Heutechwelt Inc.	0/1	-
4595	84265	Targetstream Technologies, Inc.	0/1	-
4596	84265	Clement Control Systems, Inc.	0/1	-
4597	84265	Mavensoft Technologies, Inc.	-	1/1
4598	84265	Covalentworks, Lp	0/1	-
4599	84265	A. G. Tech Usa, Inc	0/1	-
4600	84265	California Heart Centers Group	-	1/1
4601	84265	Baytul-Iman Inc.	0/1	-
4602	84265	Dynasoft Synergy, Inc	-	1/1
4603	84265	Usa Yakyudori, Inc.	-	0/1
4604	84265	Hi-Tec Professional Solutions, Inc	0/1	-
4605	84265	Qa Technologies, Inc	0/1	-
4606	84265	Tlv Advanced Software. Inc	0/1	-
4607	84265	Luctom Pizza Corp., D/B/A 'Lucio's Pizza'	-	0/1
4608	84265	Quintessence Computer Corporation	0/1	-
4609	84265	Ari Network Services, Inc.	0/1	-
4610	84265	Pointivity	-	1/1
4611	84265	Vortex Enterprise Solutions, Inc.	0/1	-
4612	84265	Sushi House Of Jax Llc	-	1/1
4613	84265	U-Combination Technology(Usa) Inc.	0/1	-
4614	84265	Silicon Mitus Technology, Inc.	-	0/1
4615	84265	Royal 4 Systems	0/1	-
4616	84265	Lpm Holding Company, Inc.	0/1	-
4617	84265	Alphanumeric Systems, Inc.	0/1	-
4618	84265	Taco Bell Of America, Inc.	0/1	-
4619	84265	Lumesse, Inc	0/1	-
4620	84265	Hosteria Romana	-	0/1
4621	84265	Empress Of China, Inc.	-	1/1
4622	84265	Da Rae Won Restaurant, Inc.	-	0/1
4623	84265	Oceania Tours	0/1	-
4624	84265	Excellent Business Consultants Inc.	0/1	-
4625	84265	Wavelab, Inc.	0/1	-
4626	84265	Lcg Systems Llc	0/1	-
4627	84265	Grom Associates	0/1	-
4628	84265	Alteryx, Inc.	0/1	-
4629	84265	Spigit, Inc.	-	0/1
4630	84265	The Rothwell Group, L.P.	0/1	-
4631	84265	Geeknet, Inc.	0/1	-
4632	84265	Stonebridge Acquistions, Inc.	-	0/1
4633	84265	Tropical Hut Catering	-	0/1
4634	84265	Eurochef Llc	-	0/1
4635	84265	Extedo, Inc.	1/1	-
4636	84265	Market Fresh, Llc	0/1	-
4637	84265	Unison Technologies, Inc.	0/1	-
4638	84265	Exact Logix, Inc.	0/1	-
4639	84265	Coastal Training Technologies Corp.	0/1	-
4640	84265	Numoda Technologies, Inc.	0/1	-
4641	84265	Palace Cafe	-	0/1
4642	84265	Mpower Software Services, Llc	0/1	-
4643	84265	Tata Consltancy Services Limited	-	0/1
4644	84265	Gantek Systems Solutions, Inc. Dba Vintek Solution	0/1	-
4645	84265	Momo Sushi & Cafe, Inc.	-	0/1
4646	84265	Comparatio Usa, Llc	0/1	-
4647	84265	Scribe Healthcare Technologies, Inc.	0/1	-
4648	84265	Application Technologies Inc	0/1	-
4649	84265	Planet Wings Inc	-	0/1
4650	84265	32 Hy Corp. T/A New Wonjo	-	0/1
4651	84265	Truglobal Inc	0/1	-
4652	84265	Frontline Consulting Services, Inc.	-	1/1
4653	84265	Jang & Shin, Inc.	-	0/1
4654	84265	Skmstech	0/1	-
4655	84265	Eso Solutions Inc.	0/1	-
4656	84265	Jang Il Corporation	-	0/1
4657	84265	Hisho Inc. Sankai Restaurant	-	0/1
4658	84265	Western Reserve Systems, Inc	0/1	-
4659	84265	Demand Media, Inc.	-	0/1
4660	84265	Saic-Frederick, Inc.	-	1/1
4661	84265	Oriental Solutions Inc	0/1	-
4662	84265	Roadside Systems, Inc.	0/1	-
4663	84265	Janbo Express	-	0/1
4664	84265	Jp Doyle Restaurant And Public House, Inc	-	0/1
4665	84265	Vision Technology Services, Llc.	-	0/1
4666	84265	Solaris Development, Inc.	-	0/1
4667	84265	Aashirwad Indian Cuisine Inc	0/1	-
4668	84265	Optimos Incorporated	-	0/1
4669	84265	Quadramed Affinity Corporation	0/1	-
4670	84265	Samhita Information Technologies, Inc.	0/1	-
4671	84265	Saber Software, Inc., D/B/A Saber Government Solut	-	0/1
4672	84265	Franchise Inverstment Inc.	-	1/1
4673	84265	Pacific Data Images, Inc.	-	0/1
4674	84265	Mcs Global, Inc	0/1	-
4675	84265	Hama Sushi, Inc.	-	0/1
4676	84265	Better It Hosting Llc	-	0/1
4677	84265	Integrated Telecom Solutions, Inc.	-	0/1
4678	84265	Cg Technology Management	0/1	-
4679	84265	Star Management Group	0/1	-
4680	84265	Hcl Infoserv, Inc.	-	1/1
4681	84265	Everest Production Corporation	-	1/1
4682	84265	Tilson Technology Management	0/1	-
4683	84265	Tokbox, Inc.	0/1	-
4684	84265	Korngip Llc D/B/A Pruthai	-	0/1
4685	84265	Datanomics Inc.	0/1	-
4686	84265	Infopeople Corporation	-	0/1
4687	84265	Armaya Restaurant Inc Dba Maya Restaurante	-	1/1
4688	84265	Intuidex, Inc.	0/1	-
4689	84265	Pj Honolulu, Llc	-	0/1
4690	84265	Chili Corporate Solutions, Inc.	0/1	-
4691	84265	Tessella Inc.	0/1	-
4692	84265	Matr Solutions, Llc	0/1	-
4693	84265	Cloud Physics, Inc.	0/1	-
4694	84265	Connected Ventures Llc	0/1	-
4695	84265	Reena Enterprises, Inc.	0/1	-
4696	84265	Avaap Usa Inc.	0/1	-
4697	84265	International Consulting Group, Inc.	0/1	-
4698	84265	American Star Alliance, Inc.	0/1	-
4699	84265	Kencast, Inc.	-	0/1
4700	84265	Idea Entity Corporation	0/1	-
4701	84265	Drobo, Inc.	0/1	-
4702	84265	Dominion Dms, Llc	0/1	-
4703	84265	Indous Technology & Edu Services Inc	0/1	-
4704	84265	Marstek Solutions Llc	0/1	-
4705	84265	Confour Systems, Inc.	0/1	-
4706	84265	Mcg Energy Solutions, Llc	0/1	-
4707	84265	El Terco Ag Llc	-	1/1
4708	84265	Ulink Technology, Inc.	0/1	-
4709	84265	Societe Internationale De Telecommunications Aeron	-	0/1
4710	84265	Sona Networks, Llc	0/1	-
4711	84265	Electronic Consulting Services, Inc.	0/1	-
4712	84265	Billmatrix Corporation	0/1	-
4713	84265	Corporate Technology Solutions, Inc.	0/1	-
4714	84265	Asolva Inc.	0/1	-
4715	84265	3csi Llc	0/1	-
4716	84265	Kgf Associates, Inc.	0/1	-
4717	-	Dth Enterprises, Inc. T/A Orient Restaurant	-	-
4718	-	Guident Technologies, Inc.	-	-
4719	-	Fenwick Technologies, Inc.	-	-
4720	-	Ecofactor, Inc.	-	-
4721	-	Kula Sushi Usa, Inc.	-	-
4722	-	Tres Amigos Inc.	-	-
4723	-	Qubera Solutions, Inc.	-	-
4724	-	Callaway Digital Arts, Inc.	-	-
4725	-	Vista Hotel Iii Inc.	-	-
4726	-	Datacert, Inc.	-	-
4727	-	Ij Lee, Inc.	-	-
4728	-	Corrugated Services Corporation T/A Amtech	-	-
4729	-	Wayupay Llc	-	-
4730	-	Lps Consulting Co., Inc.	-	-
4731	-	Simple A Llc	-	-
4732	-	Flying Fish No1, Ltd. Dba The Flying Fish	-	-
4733	-	Mortex Products, Inc.	-	-
4734	-	Genexus Usa, Inc.	-	-
4735	-	Im Practices Inc.	-	-
4736	-	Efacec Acs Inc. (Formerly Advanced Control Systems	-	-
4737	-	Minetta Llc	-	-
4738	-	Shriji Llc Dba Subway	-	-
4739	-	Direct Communications, Inc.	-	-
4740	-	Soundexchange, Inc.	-	-
4741	-	You-Niversity.Com, Inc.	-	-
4742	-	Y H Cheng Corporation	-	-
4743	-	Nawab Of Raleigh, Inc	-	-
4744	-	Restaurant Koshiji	-	-
4745	-	China Pavilion Operating Corp	-	-
4746	-	Consultant4less, Llc	-	-
4747	-	Frank's Pizza At By-Pass, Inc	-	-
4748	-	Datarecovery.Com Inc	-	-
4749	-	Compac Inc	-	-
4750	-	Detica Solutions, Inc.	-	-
4751	-	Dynamic Computing Services Corp.	-	-
4752	-	Kamal And Sandy Zaher, Llc	-	-
4753	-	Sushi At Sushi Kjh	-	-
4754	-	Peart-Hannon Consulting, Llc	-	-
4755	-	Teknostas Inc	-	-
4756	-	Pour House Co., Llc	-	-
4757	-	Innovative Architects, Llc	-	-
4758	-	Spryware, Llc	-	-
4759	-	Moz Store 1 Llc	-	-
4760	-	It Solutions Group, Inc	-	-
4761	-	Amerindia Technologies, Inc.	-	-
4762	-	Sms, Systems Maintenance Services, Inc	-	-
4763	-	Animato Technologies Corporation	-	-
4764	-	Ocinomled, Ltd.	-	-
4765	-	Rehoboth Hospitality, Lp	-	-
4766	-	Cosmos Information Solutions Dba Cosis	-	-
4767	-	Altamarea Group Llc	-	-
4768	-	326 Restaurant Corp. D/B/A Joe Allen Restaurant	-	-
4769	-	Try Thai Restaurant Llc	-	-
4770	-	La Rocca's Italian Ices & Pizzeria	-	-
4771	-	Efes, Inc.	-	-
4772	-	Netologic Inc.	-	-
4773	-	Manica Technology Llc	-	-
4774	-	Shriji Flowood Llc	-	-
4775	-	Bpm Specialists, Inc.	-	-
4776	-	Dynaconnections Corporation	-	-
4777	-	Keytech, A Div. Of Arrowpoint Technologies, Inc.	-	-
4778	-	Franks Pizza Of Quakertown Inc.	-	-
4779	-	Computer Technologies Consultants, Inc.	-	-
4780	-	H & S Sprout Brook Inc. Dba Sprout Brook Deli & Pizza	-	-
4781	-	Comptel, Inc.	-	-
4782	-	Insieme Networks, Inc.	-	-
4783	-	Qdoba Mexican Grill Restaurant	-	-
4784	-	Sapta Global Inc	-	-
4785	-	Brookside Diner & Lounge, Inc.	-	-
4786	-	Equity Guard Llc	-	-
4787	-	Smartops Corporation	-	-
4788	-	Downtown Colo Corporation	-	-
4789	-	Lwin Family Company Dba Hissho Sushi	-	-
4790	-	Tisha Enterprise Inc	-	-
4791	-	You Technology Brand Services, Inc.	-	-
4792	-	Aitcc, Inc.	-	-
4793	-	Ynyk, Inc.	-	-
4794	-	Swaytech, Llc	-	-
4795	-	Securonix Llc	-	-
4796	-	Ibs America, Inc.	-	-
4797	-	Mirth Corporation	-	-
4798	-	Composite Software, Inc.	-	-
4799	-	Dpf Data Services Group, Inc.	-	-
4800	-	Nights Of Cabiria Llc	-	-
4801	-	Sql Technologies, Inc.	-	-
4802	-	Fieldglass, Inc.	-	-
4803	-	Trak-1 Technology, Inc.	-	-
4804	-	Myung Dong Corporation	-	-
4805	-	Sane Hotels Llc Dba Country Inn & Suites Hanover	-	-
4806	-	Frank's Pizza Of Hackettstown, Inc.	-	-
4807	-	Mary's Pizza And Pasta	-	-
4808	-	Milos, Inc.	-	-
4809	-	Fertitta Hospitality, Llc	-	-
4810	-	Alandre Trading Llc	-	-
4811	-	Hera Tech Inc Dba Gray Matter Intl	-	-
4812	-	Tsc Games, Inc. Dba Supervillain Studios	-	-
4813	-	Cpg Solutions Llc	-	-
4814	-	Kontagent, Inc.	-	-
4815	-	Superior Tech Inc	-	-
4816	-	Phoenix Editorial Services, Inc. Dba Bonfire Labs.	-	-
4817	-	First Consulting Services, Inc.	-	-
4818	-	Three Stars,Corp. Dba Tony's Brick Oven	-	-
4819	-	Synova, Inc.	-	-
4820	-	391 Bloomfield Avenue Corporation	-	-
4821	-	Comm Group Inc.	-	-
4822	-	Planet Restaurant Inc	-	-
4823	-	Datapoint Systems Inc.	-	-
4824	-	Bk & Hk Group, Inc.	-	-
4825	-	St Stephen's Green Publick House	-	-
4826	-	Av Investment Co.	-	-
4827	-	Misoft, Inc.	-	-
4828	-	Hydus, Inc.	-	-
4829	-	Andalu Inc., D/B/A Perkins Family Restaurant	-	-
4830	-	Wmgg Corp.	-	-
4831	-	Sushi-Ko, Inc.	-	-
4832	-	Hyun Seob Enterprise, Inc.	-	-
4833	-	Century Deli Corporation	-	-
4834	-	Room 5 Incorporated	-	-
4835	-	Atecs Llc	-	-
4836	-	Franks Trattoria Inc.	-	-
4837	-	Discoverture Solutions, Llc	-	-
4838	-	Hwang So Go Jip Restaurant	-	-
4839	-	L'Habitation Guesthouse	-	-
4840	-	Rp/Hh Park Plaza Limited Partnership	-	-
4841	-	Hunan Taste, Inc.	-	-
4842	-	Employer Solutions Corporation	-	-
4843	-	Eee Lae, Inc.	-	-
4844	-	Healthcare Enterprise Solutions, Inc.	-	-
4845	-	Santa Nella Hospitality, Llc Dba Best Western	-	-
4846	-	Coamex Restaurant Inc.	-	-
4847	-	Frontier Solution America, Inc.	-	-
4848	-	Philly's Gourmet Cafe, Inc.	-	-
4849	-	Time Customer Service, Inc.	-	-
4850	-	127 Glen Head Inc.	-	-
4851	-	Innovations International	-	-
4852	-	Interactions Corportation	-	-
4853	-	Ai Cure Technologies Llc	-	-
4854	-	C & J Sons, Llc	-	-
4855	-	Csi America Inc.	-	-
4856	-	G&S Restaurant Of Ithaca Inc.	-	-
4857	-	Sav-On Software, Inc.	-	-
4858	-	Plurotech Inc.	-	-
4859	-	5th Cell Media Llc	-	-
4860	-	Broadway Japanese Food & Enterprises, Llc	-	-
4861	-	Traditions Restaurant	-	-
4862	-	Satya Sairam,Llc	-	-
4863	-	Printable Technologies Inc.,	-	-
4864	-	Velocity Medical Solutions, Llc	-	-
4865	-	American Chicken, Inc. Dba King's Chicken	-	-
4866	-	Flytime Tours & Travel	-	-
4867	-	Cliqr Technologies, Inc.	-	-
4868	-	Caracas Restaurant Llc	-	-
4869	-	Rhapsody Infotech Llc	-	-
4870	-	Ironworks Consulting, Llc	-	-
4871	-	Holy Guacamole	-	-
4872	-	Wymond Associates Llc	-	-
4873	-	Md On-Line	-	-
4874	-	Andy's Place	-	-
4875	-	White Water Consulting, Llc	-	-
4876	-	Bird Rock Multimedia Inc. Dba Passmorelab	-	-
4877	-	Downtown Reel Productions, Inc.	-	-
4878	-	Gamefactory, Inc.	-	-
4879	-	Washington State Patrol	-	-
4880	-	Pilgrim Software, Inc.	-	-
4881	-	Springsoft Usa, Inc.	-	-
4882	-	Mnz Inc	-	-
4883	-	Avectra, Inc.	-	-
4884	-	Motiga, Inc.	-	-
4885	-	Ottakring Inc D/B/A Sel & Poivre Restaurant	-	-
4886	-	Materialise Usa, Llc	-	-
4887	-	Grace Keira, Inc. Dba Thatchers Mc Ghee's	-	-
4888	-	Sportstream Inc.	-	-
4889	-	Skansoft Inc	-	-
4890	-	Tumblr, Inc.	-	-
4891	-	Performance Management Associates Inc.	-	-
4892	-	Greatwater Software Inc., Dba Patient Point, Llc	-	-
4893	-	Stuart's Seafood Market, Ltd.	-	-
4894	-	Slight Edge Solutions Inc.	-	-
4895	-	Gareeb Nawaz Inc	-	-
4896	-	Best It Experts, Inc.	-	-
4897	-	Sushi Yama Llc	-	-
4898	-	Prithvi Information Solutions International Llc	-	-
4899	-	Marketlive, Inc.	-	-
4900	-	Micropower Business Solutions Inc	-	-
4901	-	50 Morgan Ct, Llc	-	-
4902	-	Korean Best Travel, Inc	-	-
4903	-	Parwan Electronics Corporation	-	-
4904	-	B2b Design & Development, Llc	-	-
4905	-	Nklg Cafe Corp., D/B/A Aliada Restaurant	-	-
4906	-	Phytel, Inc.	-	-
4907	-	Kambousi Restaurant	-	-
4908	-	Informatech	-	-
4909	-	Jeewoo, Llc	-	-
4910	-	Mycon Llc	-	-
4911	-	Compugraphics Usa Inc.	-	-
4912	-	Peoplesoft Fusion Consulting Corp	-	-
4913	-	C. Gabheraj Hospitality Llc	-	-
4914	-	Dfusion Software	-	-
4915	-	The Extraordinaries, Inc.	-	-
4916	-	Bcg Consulting Inc.	-	-
4917	-	Erg Hotels, Inc.	-	-
4918	-	Ciberspring, Llc	-	-
4919	-	Logistar Solutions Llc	-	-
4920	-	Hamburg Kasturi Ltd.Dba Comfort Inn	-	-
4921	-	Adroit Infotech, Inc.	-	-
4922	-	Medseek, Inc.	-	-
4923	-	Dekatron Corporation	-	-
4924	-	Kiku Japanese Steak & Seafood House	-	-
4925	-	Ocean Enterprises, Llc	-	-
4926	-	Image Integration Systems Inc.	-	-
4927	-	Infopath Systems, Inc.	-	-
4928	-	Mesa Properties A General Partnership	-	-
4929	-	O Jang Dong, Inc.	-	-
4930	-	Jenk Inc Dba Sei Bar	-	-
4931	-	Top Tours, Inc.	-	-
4932	-	Hetrosys Llc	-	-
4933	-	Nvw, Inc.	-	-
4934	-	Hopscotch Hospitality Llc Dba The Porches Inn	-	-
4935	-	Tetris Online, Inc.	-	-
4936	-	Rembros Corporation	-	-
4937	-	Vizdom Software, Inc.	-	-
4938	-	Amey Enterprises (Dba. Olympic Collection)	-	-
4939	-	Wei Lin & Huang Cui Hong Ptrs D/B/A Super Wok	-	-
4940	-	Tekseed Solutions, L.L.C.	-	-
4941	-	Cache Next Generation, Llc.	-	-
4942	-	Krish Radiant Solutions	-	-
4943	-	Acme Packet, Inc.	-	-
4944	-	Statewide Direct Insurance Services Inc Dba Onesys	-	-
4945	-	Rtp Hhv Lp	-	-
4946	-	Knoa Software, Inc.	-	-
4947	-	Mixit, Inc	-	-
4948	-	Ats Systems Oregon, Inc.	-	-
4949	-	Etherstack, Inc.	-	-
4950	-	Infinity Info Systems Corp.	-	-
4951	-	Lunexa, Llc	-	-
4952	-	Futrend Technology, Inc.	-	-
4953	-	Tek8, Llc	-	-
4954	-	Mercadito Chicago Llc	-	-
4955	-	Nagoya Food Inc	-	-
4956	-	Forcebrain.Com, Inc	-	-
4957	-	Talenthouse Inc.	-	-
4958	-	Tous Software, Corp.	-	-
4959	-	Appellate Innovations, Llc	-	-
4960	-	Just B. Claws	-	-
4961	-	Kaz Sushi Bistro	-	-
4962	-	Primera Holdings Corp.	-	-
4963	-	Boru Ballston Inc.	-	-
4964	-	Global Commerce & Information, Inc	-	-
4965	-	Ost International Corporation-A Cdc Company	-	-
4966	-	Supernova Software Solutions, Inc.	-	-
4967	-	Trilogy Technical Services, Llc	-	-
4968	-	Techforza, Inc.	-	-
4969	-	Exari	-	-
4970	-	Career Express Exboss International Inc.	-	-
4971	-	Hashmi Ent., Inc.	-	-
4972	-	Averail Corporation	-	-
4973	-	Infoaxe Inc.	-	-
4974	-	Kaspersky	-	-
4975	-	Cti Systems, Llc D/B/A Rcx Rules	-	-
4976	-	369, Inc.	-	-
4977	-	Media X, Inc.	-	-
4978	-	Dsr Management Inc	-	-
4979	-	Wakensys Corporation	-	-
4980	-	Smart Imaging Technologies Co.	-	-
4981	-	Fmn Tours, Inc.	-	-
4982	-	Veracruz, Inc. D.B.A. Cafe Veracruz	-	-
4983	-	Distribion Inc.	-	-
4984	-	Strata-G Solutions, Inc.	-	-
4985	-	Digital Intelligence Systems Corporation	-	-
4986	-	Business Tech Bay Inc	-	-
4987	-	Dunton Hot Springs Inc.	-	-
4988	-	Deco Beach Inns	-	-
4989	-	Fish Plaza, Inc.	-	-
4990	-	Calypto Design Systems, Inc.	-	-
4991	-	Openclovis Solutions Inc	-	-
4992	-	Silkroad Software & Service, Inc.	-	-
4993	-	Redemtech, Inc.	-	-
4994	-	Boston Technologies, Inc.	-	-
4995	-	Community It Innovators	-	-
4996	-	Oak View Hotel L.P.	-	-
4997	-	Mrh Infotech	-	-
4998	-	Moka5, Inc.	-	-
4999	-	Healthspot Inc.	-	-
5000	-	Concordware International Ca, Inc.	-	-
5001	-	Isg, Corp	-	-
5002	-	Morales Interprises	-	-
5003	-	Isl Techsolutions Inc.	-	-
5004	-	Eyesee360, Inc.	-	-
5005	-	Acumen Infotech Inc.	-	-
5006	-	Computer Services Of America Inc	-	-
5007	-	Research In Motion Corporation (Us)	-	-
5008	-	Zoove Corporation	-	-
5009	-	Tara Thai	-	-
5010	-	Cameleon Software Usa, Inc.	-	-
5011	-	Poti, Inc.	-	-
5012	-	Penguin Ed's Barbeque, Inc.	-	-
5013	-	Ggs Food Corp D/B/A Curry Express	-	-
5014	-	Net Data Corporation	-	-
5015	-	Actsoft, Inc.	-	-
5016	-	Kony Solutions, Inc.	-	-
5017	-	Skout, Inc.	-	-
5018	-	Hasoffers, Inc.	-	-
5019	-	Vigillo, Llc	-	-
5020	-	Hmis, Inc.	-	-
5021	-	Aptera Software, Inc.	-	-
5022	-	Irise	-	-
5023	-	Caviar La, Inc.	-	-
5024	-	Avignasoft, Inc	-	-
5025	-	Textwise Company, L.L.C.	-	-
5026	-	Sumo Japanese Restaurant, Inc.	-	-
5027	-	Bell's Diner, Inc.	-	-
5028	-	Sera Consulting	-	-
5029	-	Service Repair Solutions	-	-
5030	-	Opus Pos (Ca), Inc.	-	-
5031	-	Mmc Systems Inc.	-	-
5032	-	Aegis.Net, Inc.	-	-
5033	-	Zeon Solutions, Inc.	-	-
5034	-	E & S Food Service Corp Dba Sycamore Restaurant	-	-
5035	-	48th Restaurant Associates Llc	-	-
5036	-	Burstly, Inc.	-	-
5037	-	Voltage Pictures	-	-
5038	-	Audio Fidelity Communications Corp.	-	-
5039	-	Starmount Systems Inc.	-	-
5040	-	Koi Llc Dba Koi Japanese Hibachi & Sushi	-	-
5041	-	Syscom Services, Inc.	-	-
5042	-	Pw618, Inc Dba Golden Shanghai Restaurant	-	-
5043	-	Global Sharepoint Works, Llc	-	-
5044	-	Prototype Industries, Inc.	-	-
5045	-	Mandiant Corporation	-	-
5046	-	Point Pleasant Manor Inc.	-	-
5047	-	Radius Technology Group	-	-
5048	-	Salento Food Dba Ciao Pasta	-	-
5049	-	Denver Heights International Llc	-	-
5050	-	Gravitant, Inc.	-	-
5051	-	Dexterity Business Analysts, Inc	-	-
5052	-	Camping Car Usa Inc	-	-
5053	-	Tm Systems, Llc	-	-
5054	-	Aker Group Corp.	-	-
5055	-	Vanick Group, Llc	-	-
5056	-	Net.Orange, Inc.	-	-
5057	-	Korsinjji, Inc. Dba Ginzaya	-	-
5058	-	Spice Hospitality Llc	-	-
5059	-	Pimsoft Inc.	-	-
5060	-	Breaktime Studios, Inc.	-	-
5061	-	D S Han, Inc. T/A Burke Chesapeake Cafe	-	-
5062	-	La Bastide Inc Dba Tapenade	-	-
5063	-	Mel-Dea, Inc.	-	-
5064	-	76 Mall Inn, Inc. Dba Papa Grand's Pizza	-	-
5065	-	Thaicoast,Inc	-	-
5066	-	Nmr Sycamore Llc	-	-
5067	-	Result Group, Inc.	-	-
5068	-	Strenuus, Llc	-	-
5069	-	China Professional Travel & Tours Inc	-	-
5070	-	Netsoft De Puerto Rico Inc	-	-
5071	-	Blueleaf Digital Llc	-	-
5072	-	Beeline Interactive	-	-
5073	-	Santa Group	-	-
5074	-	Sushi Mon Japanese Restaurant, Inc.	-	-
5075	-	Jk Arirang, Inc.	-	-
5076	-	Kvs Enterprises Llc	-	-
5077	-	Miro Technologies, Inc.	-	-
5078	-	Rals Kc Inc	-	-
5079	-	Gaza Inc. Dba Gaza Korean Grill	-	-
5080	-	Robson Entertainment	-	-
5081	-	Ggyaxis Inc.	-	-
5082	-	Dast Irvine, Inc.	-	-
5083	-	Media Excel, Inc.	-	-
5084	-	Luceo, Inc.	-	-
5085	-	Th Information Systems D/B/A Equivu	-	-
5086	-	Dbadirect, Inc.	-	-
5087	-	Apex Government Solutions, Llc	-	-
5088	-	Newfield Wireless, Inc.	-	-
5089	-	Thai Thani Tampa, Inc	-	-
5090	-	Pisticci Restaurant Corp.	-	-
5091	-	Diligent Board Member Services, Inc.	-	-
5092	-	Channel Islands Helicopters Llc	-	-
5093	-	Shoney's Of Richmond	-	-
5094	-	Alexandria Hotel Company Llc	-	-
5095	-	Orsyp Software, Inc.	-	-
5096	-	Yong & Lin Inc	-	-
5097	-	Retalix Usa, Inc.	-	-
5098	-	Arriba Arriba Sunnyside, Inc.	-	-
5099	-	Yorkia Group Inc	-	-
5100	-	La Iguana Restaurant Llc	-	-
5101	-	Cloud Engines, Inc.	-	-
5102	-	Tamman Technologies, Inc.	-	-
5103	-	Deenora Corp Dba Dees	-	-
5104	-	Ne Technologies, Inc.	-	-
5105	-	Metro It Resources Of Puerto Rico, Inc.	-	-
5106	-	Chemoil Corporation	-	-
5107	-	At&T, Inc., And All Of Its Subsidiaries And Affiliates	-	-
5108	-	Nds Usa, Llc	-	-
5109	-	Cervantes Of Spain	-	-
5110	-	Piatto, Inc.	-	-
5111	-	Statsoft, Inc.	-	-
5112	-	Relational Networks Inc	-	-
5113	-	Fuelquest, Inc.	-	-
5114	-	T&M Consulting Corp.	-	-
5115	-	Mamma Mia Pizzeria Restaurant, Inc.	-	-
5116	-	Divya Ii, Inc.	-	-
5117	-	Varitek Inc.	-	-
5118	-	Teleca Usa, Inc.	-	-
5119	-	Bitzer Mobile	-	-
5120	-	Standard Data Corporation	-	-
5121	-	Messagemind Management, Inc.	-	-
5122	-	Intrinsic Medical Imaging, Llc	-	-
5123	-	Microlink, Llc	-	-
5124	-	Hostel Habibi	-	-
5125	-	Restaurant Route 27 Llc	-	-
5126	-	Buckminster Kenmore, Inc.	-	-
5127	-	Virtual Instruments Usa Inc.	-	-
5128	-	Irisgs Inc	-	-
5129	-	California Creative Consulting Group	-	-
5130	-	Urth Caffe Associates Iii, Llc	-	-
5131	-	Evolvescape Inc.	-	-
5132	-	Jang Su Jang, Inc.	-	-
5133	-	Intelex, Ltd.	-	-
5134	-	Regard Corporation	-	-
5135	-	Globe Serve Llc	-	-
5136	-	Legends Sports Grille, Inc.	-	-
5137	-	Brasilia Grill. Inc.	-	-
5138	-	River Project Llc	-	-
5139	-	Linked Consulting, Inc.	-	-
5140	-	Atlas Communications Technology, Inc.	-	-
5141	-	Tma Resources, Inc.	-	-
5142	-	Malhar, Inc.	-	-
5143	-	Oomasa, Inc.	-	-
5144	-	Royal Food Inc. T/A Manhattan Pizza & Pasta	-	-
5145	-	The Oliver Group Llc	-	-
5146	-	Csdc Systems Inc.	-	-
5147	-	Quantisense, Inc.	-	-
5148	-	Atrenta, Inc.	-	-
5149	-	Pj Clarkes On The Hudson	-	-
5150	-	Kv Consultants, Inc.	-	-
5151	-	Feng Xing Corporation	-	-
5152	-	Olde Village Square Corp.	-	-
5153	-	K3h Corp.	-	-
5154	-	Orb Networks, Inc.	-	-
5155	-	Xaxis Solutions, Inc.	-	-
5156	-	Media Three Corporation	-	-
5157	-	Simplicti Software Solutions,Inc.	-	-
5158	-	Mellmo Inc.	-	-
5159	-	Consilium Consulting, Inc.	-	-
5160	-	Teamquest Corporation	-	-
5161	-	Pb&J Group Llc	-	-
5162	-	Ge Intelligent Platforms, Inc.	-	-
5163	-	Commission Junction, Inc.	-	-
5164	-	Meadow Asian Cuisine Inc	-	-
5165	-	Vincent Caravello	-	-
5166	-	Impact Picturs Llc	-	-
5167	-	Shogun Japanese Restaurant	-	-
5168	-	Shah & Modi Corp Dba Subway	-	-
5169	-	Quorum Business Solutions, Inc.	-	-
5170	-	Computer Tower, Inc	-	-
5171	-	Zemak Llc	-	-
5172	-	Craig Zadan Productions, Inc.	-	-
5173	-	320 Lincoln Llc	-	-
5174	-	Lexar Media, Inc.	-	-
5175	-	Clear Imaging, Inc.	-	-
5176	-	D2hawkeye, Inc.	-	-
5177	-	Mgs Express, Inc., Dba Mcdonald's	-	-
5178	-	Parsage, Inc.	-	-
5179	-	Joie De Vivre-Orchard Hotel, Llc	-	-
5180	-	Modernizing Medicine, Inc.	-	-
5181	-	Easterncctv West Inc	-	-
5182	-	Nears International Inc.	-	-
5183	-	Barbes, Inc.	-	-
5184	-	Unbounded Solutions, Inc.	-	-
5185	-	Strongmail Systems, Inc.	-	-
5186	-	Addvantx Solutions Llc	-	-
5187	-	Novaquest Llc	-	-
5188	-	Frj Oceanside Donuts Inc	-	-
5189	-	Edx-Change Llc	-	-
5190	-	Arrowhead Technologies, Inc	-	-
5191	-	Bua Llc	-	-
5192	-	Silicon Alley Group Inc	-	-
5193	-	Ang Corporation	-	-
5194	-	Ryzlink Corporation	-	-
5195	-	Health Grades, Inc.	-	-
5196	-	Apache Design, Inc.	-	-
5197	-	424 Wild Ginger Inc	-	-
5198	-	Vecna	-	-
5199	-	Ncino, Llc	-	-
5200	-	Finezi Inc.	-	-
5201	-	Conceptual Systems Llc	-	-
5202	-	Ptr Associates Llc D/B/A Perkins Restaurant & Bakery	-	-
5203	-	Sxc Health Solutions, Inc.	-	-
5204	-	Crunchtime Corp	-	-
5205	-	Research Computer Sciences, Inc.	-	-
5206	-	July 96 Corp. D/B/A City Diner	-	-
5207	-	Imc, Inc	-	-
5208	-	Mddatacor, Inc.	-	-
5209	-	Pro Saamya,Inc.	-	-
5210	-	Graphic Systems International, Inc.	-	-
5211	-	Global Operations Inc.	-	-
5212	-	Treats R Us. Inc.	-	-
5213	-	Goldcrest Facilities, Inc.	-	-
5214	-	Sapphire Technologies, Lp	-	-
5215	-	Grid Dynamics Consulting Services	-	-
5216	-	Vision It Services Inc	-	-
5217	-	Ensys Corp	-	-
5218	-	Xtensible Solutions Llc	-	-
5219	-	Advanced Cellular Inc	-	-
5220	-	Awon Corporation	-	-
5221	-	Hyla Soft, Inc.	-	-
5222	-	Courtesy Travel, Inc. T/A Hana Tour	-	-
5223	-	Fantasy Flight Publishing Inc.	-	-
5224	-	Blink Interactive, Llc	-	-
5225	-	Infoworks Global Inc.	-	-
5226	-	Klein Management Systems, Inc.	-	-
5227	-	Oneplace Llc	-	-
5228	-	Vincenzo Atlanta Llc	-	-
5229	-	Ichibanya Usa, Inc.	-	-
5230	-	Gala-Net, Inc.	-	-
5231	-	Professionals Resource Group Inc	-	-
5232	-	Tower Oaks Lodge	-	-
5233	-	Sauper Associates, Inc	-	-
5234	-	Maan Systems Inc	-	-
5235	-	Acom Solutions, Inc.	-	-
5236	-	Guapo Bodega	-	-
5237	-	Rancho Taco Shop	-	-
5238	-	Yan Lim, Inc	-	-
5239	-	Tessitura Network, Inc.	-	-
5240	-	Pharos & Shrine, Inc	-	-
5241	-	Panpacific Trading Company	-	-
5242	-	Apex Educational Services Inc	-	-
5243	-	Nabros Inc	-	-
5244	-	Green Beacon Solutions, Llc	-	-
5245	-	San Pedro Waterfront, Llc	-	-
5246	-	Seia Corp.	-	-
5247	-	Alpinegate Technologies Llc	-	-
5248	-	Quadrant 4 Consulting, Inc.	-	-
5249	-	Catamaran Inc.	-	-
5250	-	Evantage Technologies Inc.,	-	-
5251	-	Hatteras Realty, Inc.	-	-
5252	-	Dvs Intelestream	-	-
5253	-	E & S United Corporation	-	-
5254	-	Cube Infosys, Inc	-	-
5255	-	Mandarin House, Llc	-	-
5256	-	Sambreel Services, Llc Fka Finial Services Llc	-	-
5257	-	Uwork.Com Dba Covendis Technologies	-	-
5258	-	Unatek, Inc.	-	-
5259	-	Goepel Electronics Llc	-	-
5260	-	Starcompliance, Inc.	-	-
5261	-	Gerardo Rivera Dba Quiznos Classic Subs	-	-
5262	-	Enable Consulting, Llc	-	-
5263	-	Jai Dev Inc	-	-
5264	-	Sigma Surveillance Inc	-	-
5265	-	Invent Information Technology, Inc.	-	-
5266	-	Elektrobit Automotive Inc.	-	-
5267	-	Nexgen Asset Management	-	-
5268	-	Emaginenet Technologies, Inc.	-	-
5269	-	Golden Peony Llc	-	-
5270	-	Amr Management Services	-	-
5271	-	Tangent Logic, Inc.	-	-
5272	-	Hong Kong Restaurant	-	-
5273	-	Sai Blessing Llc	-	-
5274	-	Ramgharia, Inc. D/B/A Rajpoot Indian Restaurant	-	-
5275	-	Accentiqa Group Inc (Previously Known As Affuel Sy	-	-
5276	-	Chen Yam Restaurant Corp	-	-
5277	-	Readsoft, Inc.	-	-
5278	-	Randal Gulfport Corporation D/B/A Subway	-	-
5279	-	Wandl, Inc.	-	-
5280	-	Sarabeths Tribeca Llc	-	-
5281	-	Brc Catering	-	-
5282	-	Fonemine, Inc	-	-
5283	-	Aka Sushi Jk, Inc., D/B/A Aka Japanese Restaurant	-	-
5284	-	Ring2 Communications, Llc	-	-
5285	-	Taxco Llc	-	-
5286	-	Cervalis Llc	-	-
5287	-	Elance, Inc.	-	-
5288	-	Proboards, Inc	-	-
5289	-	Ipcelerate Inc.	-	-
5290	-	Kalido Inc.	-	-
5291	-	Co & Mk Inc.	-	-
5292	-	Silicon And Software Systems Us Inc	-	-
5293	-	Ncomputing, Inc.	-	-
5294	-	Sakurai Guam Inc.	-	-
5295	-	Tradebuilder Inc	-	-
5296	-	Solari's Restaurant	-	-
5297	-	Compass It Consulting	-	-
5298	-	Compulink Business Systems	-	-
5299	-	Intelligenx	-	-
5300	-	Hospitality Services North America Corp.	-	-
5301	-	A.K. Nasary Corp. Dba Dunkin Donuts	-	-
5302	-	D.A.M.A. Restaurant, Inc.	-	-
5303	-	Infomart2000, Corp.	-	-
5304	-	La Casa Alba	-	-
5305	-	Clovis Group, Llc	-	-
5306	-	Ensim Corporation	-	-
5307	-	Healthy Candle Cafe	-	-
5308	-	Automated Securities Clearance Llc	-	-
5309	-	Cover-All Systems Inc.	-	-
5310	-	Rhythm Newmedia Inc.	-	-
5311	-	Socius	-	-
5312	-	Lodestone Management Consultants Inc.	-	-
5313	-	226 Jefferson Inc Dba The Met	-	-
5314	-	Velio Systems Llc	-	-
5315	-	El Paisa Grill Fresh Mex Llc	-	-
5316	-	9876 Bowery Realty Corp.	-	-
5317	-	Oxford Consulting Group, Inc.	-	-
5318	-	B2b Workforce, Lp	-	-
5319	-	Rs It Solutions Inc	-	-
5320	-	Digital Brand Mine, Llc	-	-
5321	-	Accumedscript Llp	-	-
5322	-	Historic Tavern Inc./Dbs The Old 76 House	-	-
5323	-	Softech & Associates, Inc.	-	-
5324	-	H. Tech Solutions, Llc	-	-
5325	-	Yun Yan Inc. Dba Chin Chin Restaurant	-	-
5326	-	Niko Niko Corporation	-	-
5327	-	Sigmanet, Inc.	-	-
5328	-	Getjar, Inc.	-	-
5329	-	Burger Lounge Management Llc	-	-
5330	-	Preesha Operating Corp Dba Ranch 1	-	-
5331	-	Aquilent, Inc	-	-
5332	-	Carpool Investors Lp	-	-
5333	-	Hbe Solutions, Llc	-	-
5334	-	Tech Ventures International, Llc	-	-
5335	-	Macrovia Partners, Inc.	-	-
5336	-	Thai Creation, Inc.	-	-
5337	-	Allsoft Solutions, Inc.	-	-
5338	-	Frank's Pizza Of Mt. Olive, Inc	-	-
5339	-	Mozza Llc.	-	-
5340	-	Gpi Technologies, Llc	-	-
5341	-	The Mark Hotel	-	-
5342	-	Liveops, Inc.	-	-
5343	-	Dns Restaurant, Inc.	-	-
5344	-	Digicom Usa	-	-
5345	-	Xie Corp	-	-
5346	-	Synergy & Integration Inc.	-	-
5347	-	Ajt Systems, Inc.	-	-
5348	-	Advanced Programming Group, Inc.	-	-
5349	-	Sourcefire, Inc.	-	-
5350	-	Proplus Design Solution, Inc	-	-
5351	-	Health Plan Systems Inc	-	-
5352	-	Lindo Systems, Inc.	-	-
5353	-	El Rodeo Plantation	-	-
5354	-	Ensenta Corporation	-	-
5355	-	Softential, Inc.	-	-
5356	-	Auryn, Inc.	-	-
5357	-	Linux Certified, Inc	-	-
5358	-	Iworks Corporation	-	-
5359	-	Gerflor Usa, Inc.	-	-
5360	-	Specialty Tours - International (Usa) Inc.	-	-
5361	-	Wjh, Inc	-	-
5362	-	Java Joint, Incorporated	-	-
5363	-	Cafe Soleil	-	-
5364	-	Murphy's Deli Franchising Inc	-	-
5365	-	E-Centives	-	-
5366	-	Green Leaves Restaurant Inc	-	-
5367	-	Jenpachi Japanese Steak House Llc	-	-
5368	-	Careanyware, Inc	-	-
5369	-	Xyenterprise, Inc.	-	-
5370	-	Sdg Post Oak Lp Dba Rdg Bar Annie	-	-
5371	-	Parthenon Software Group, Inc	-	-
5372	-	Deepintel Solutions, Llc.	-	-
5373	-	Olumpus Hotels Ltd	-	-
5374	-	Digite, Inc.	-	-
5375	-	Sungard Systems International Inc.	-	-
5376	-	Kress Employment Screening, Inc.	-	-
5377	-	Kv Technologies, Inc.	-	-
5378	-	Sejin International In Usa Inc	-	-
5379	-	Thunderbird Hospitality, Inc.	-	-
5380	-	Confluentia Group, Llc	-	-
5381	-	Alltuition, Inc.	-	-
5382	-	Vertex Us Holdings Inc. (Dba Orcom Solutions Inc)	-	-
5383	-	Euree Sushi Inc. (Doing Business As sushi Ya)	-	-
5384	-	Beith Aharon Synagogue	-	-
5385	-	Boglebogle, Inc. D/B/A To Soc Chon	-	-
5386	-	Elan Video Inc Dba Open Eye Media	-	-
5387	-	Durango's Inc., Dba Durangos Mexican Restaurant	-	-
5388	-	Myrooms Inc.	-	-
5389	-	Attensity Americas, Inc.	-	-
5390	-	Novecento Group, Llc	-	-
5391	-	Chow Time 1, Llc	-	-
5392	-	Calabasas Sage, Llc.	-	-
5393	-	New Peking Restaurant, Inc.	-	-
5394	-	Asian 1 Restaurant Corp	-	-
5395	-	Cld & Associates Consulting Inc	-	-
5396	-	Masterlabs, Inc.	-	-
5397	-	Ip Net, Llc	-	-
5398	-	Harney Sushi Inc.	-	-
5399	-	Arry's Burgers	-	-
5400	-	Flexible Fish Corp. D.B.A. Blue Ribbon Sushi	-	-
5401	-	New Hong's Garden Llc	-	-
5402	-	Cafe Beau Soleil	-	-
5403	-	Plx Technology, Inc.	-	-
5404	-	Love Sushi House, Inc	-	-
5405	-	Galata, Inc. D.B.A. I Tre Merli Restaurant	-	-
5406	-	Falcon Capital Investment Group, Llc	-	-
5407	-	Ensenda, Inc.	-	-
5408	-	Smilestraders Llc (Dba Ramp Consulting)	-	-
5409	-	Gardner Consultants	-	-
5410	-	Leapset, Inc.	-	-
5411	-	Sitrof Technologies, Inc.	-	-
5412	-	Soa Software, Inc.	-	-
5413	-	Aginity, Llc	-	-
5414	-	Metrita, Inc.	-	-
5415	-	Palantir Usa Inc	-	-
5416	-	Vitalize Consulting Solutions Inc.	-	-
5417	-	Digitalpersona, Inc.	-	-
5418	-	Nsb Retail Systems, Inc.	-	-
5419	-	Gurney's Inn Resort And Spa Ltd.	-	-
5420	-	Sesame Communications, Inc.	-	-
5421	-	Quick Solutions, Inc.	-	-
5422	-	Liberty Solutions, Lp	-	-
5423	-	Mimus Inc	-	-
5424	-	Compumay Usa, Inc.	-	-
5425	-	La Tourraine Llc	-	-
5426	-	Anaba Sushi, Inc.	-	-
5427	-	Light Speed Solutions, Llc	-	-
5428	-	Medirec	-	-
5429	-	Island Tech Services, Llc	-	-
5430	-	Komputer+ Peripherals, Inc.	-	-
5431	-	Kisho Inc	-	-
5432	-	Host International, Inc.	-	-
5433	-	Baru Group Llc	-	-
5434	-	Affection Company Llc (D/B/A Tokyo Restaurant)	-	-
5435	-	Dynamic Consulting Partners Inc	-	-
5436	-	Philly Sunrise Llc	-	-
5437	-	Lyatiss Inc	-	-
5438	-	Kim's Of Novi, Inc.	-	-
5439	-	Altibase, Inc.	-	-
5440	-	Moc Products Co., Inc.	-	-
5441	-	Ciinow, Inc.	-	-
5442	-	Dhaksha Technologies, Inc.,	-	-
5443	-	Farmer Boys Food Inc	-	-
5444	-	Great Panda Co.	-	-
5445	-	Regency Technologies, Inc.	-	-
5446	-	Style Concept Studio	-	-
5447	-	Osh, Inc	-	-
5448	-	Dock Of The Bay, Inc.	-	-
5449	-	Intelutions, Inc.	-	-
5450	-	Jak Family Enterprises, Inc. D/B/A Bon Fresco Sandwich Bakery	-	-
5451	-	Yammer, Inc.	-	-
5452	-	Christine Kaouris T/A Leos Sub & Pizza	-	-
5453	-	Juno, Inc., D/B/A Sushi Ya	-	-
5454	-	Itco Corp. Dba Ginseng Bbq Restaurant	-	-
5455	-	Upm Marketing, Inc.	-	-
5456	-	Big Ichthus	-	-
5457	-	Dinalic Llc	-	-
5458	-	Icra Sapphire Inc.	-	-
5459	-	Dundalk Operationg Group Inc	-	-
5460	-	Presynct Technologies, Inc.	-	-
5461	-	Sulai Hospitality Inc	-	-
5462	-	Daewon.Inc (D/B/A Yoon Sushi)	-	-
5463	-	Netuitive, Inc.	-	-
5464	-	Translattice Inc.	-	-
5465	-	Jai Gayatri Inc. Dba Subway	-	-
5466	-	Indus Solutions, Inc.	-	-
5467	-	Jeffrey Wagar	-	-
5468	-	Cerebral Infotech, Llc	-	-
5469	-	Magic Wok Of Tupelo Ms Inc.	-	-
5470	-	Uniorg, Inc.	-	-
5471	-	Cb Broadway Diner Inc	-	-
5472	-	Rdr Foods, Inc.	-	-
5473	-	Costley Enterprises, Inc.	-	-
5474	-	Garden Wok, Inc.	-	-
5475	-	Lawroom.Com	-	-
5476	-	B.I. Minds, Inc.	-	-
5477	-	Xebew Inc.	-	-
5478	-	Mbms Incorporated	-	-
5479	-	Griptonite, Inc.	-	-
5480	-	Castle Rock Innovations, Llc	-	-
5481	-	Envision Media Arts	-	-
5482	-	Portware, Llc	-	-
5483	-	Svn Associates Inc	-	-
5484	-	Justicetrax, Inc.	-	-
5485	-	Airfacts, Inc.	-	-
5486	-	Rsj Group Corporation	-	-
5487	-	The Active Network, Inc.	-	-
5488	-	Datavibes, Inc.	-	-
5489	-	Ists Worldwide Inc.	-	-
5490	-	Thai Creations, Inc.	-	-
5491	-	Avila's El Ranchito Grill, Inc.	-	-
5492	-	Integralis, Inc.	-	-
5493	-	The Linchpin Group, Llc	-	-
5494	-	Horizon Computer Services, Inc	-	-
5495	-	Instep Software, Llc	-	-
5496	-	Peppino & Pasquale, Inc. Dba Antonio's Pizza	-	-
5497	-	Rally Software Development Corp.	-	-
5498	-	Structure Consulting Group, Llc	-	-
5499	-	E-Dialog, Inc.	-	-
5500	-	Greencard Pictures Llc	-	-
5501	-	New Seoul Korean Restaurant, Llc	-	-
5502	-	Velan Hospitality, Inc.	-	-
5503	-	Inventrio Llc	-	-
5504	-	H & S Sweets, Llc	-	-
5505	-	Hippo Usa Inc.	-	-
5506	-	Brickell Travel Management, Llc	-	-
5507	-	Xoriant Corporation	-	-
5508	-	Teledata Technology Solutions, Inc.	-	-
5509	-	74 Fifth Ave Market Corp	-	-
5510	-	Cartegraph Systems, Inc.	-	-
5511	-	Hk And Associates, Inc.	-	-
5512	-	Agresso Americas Corporation	-	-
5513	-	Qualitest Technologies, Inc.	-	-
5514	-	Dong Fang Hong Inc	-	-
5515	-	Mozaic Group Partners Llc	-	-
5516	-	Tan Bar B Q Chicken, Inc. D/B/A La Casa Del Pollo	-	-
5517	-	Gravity Solutions Inc.	-	-
5518	-	Philadelphia Sightseeing Tours Inc.	-	-
5519	-	Savin Engineers P.C.	-	-
5520	-	Joy Of Tokyo Ii, Inc.	-	-
5521	-	Scalable Systems, Inc	-	-
5522	-	It Max Group, Llc	-	-
5523	-	Sophis Llc	-	-
5524	-	Tectura Corporation	-	-
5525	-	Lee's Family Enterprises, Inc.	-	-
5526	-	Potomac Marketing Services, Llc Dba Travel Options	-	-
5527	-	Dc Optical Laboratory	-	-
5528	-	Lynchval Systems Worldwide Inc	-	-
5529	-	Axeda Corporation	-	-
5530	-	Ecomnets, Inc.	-	-
5531	-	Urban Airship, Inc.	-	-
5532	-	Sbs Creatix, Llc	-	-
5533	-	Kana Software, Inc.	-	-
5534	-	Parse, Inc.	-	-
5535	-	Akcelerant Software Llc	-	-
5536	-	The Cloudscaling Group, Inc.	-	-
5537	-	Rapleaf	-	-
5538	-	Fx Alliance, Llc	-	-
5539	-	Archonix Systems, Llc	-	-
5540	-	Groupware Solutions, Inc	-	-
5541	-	Rapid Consulting Services, Llc	-	-
5542	-	Houston F&E Llc	-	-
5543	-	Nepsoft, Inc.	-	-
5544	-	Chao Phra Ya	-	-
5545	-	Kal-B, Inc.	-	-
5546	-	Optimus Systems Inc.	-	-
5547	-	Yex Solutions Inc	-	-
5548	-	Corys Thunder, Inc.	-	-
5549	-	Ultriva, Inc.	-	-
5550	-	Citi Young Corp.	-	-
5551	-	Velti Usa, Inc.	-	-
5552	-	Megabyte Systems, Inc.	-	-
5553	-	Grand Venice Hotel & Cellar, Inc	-	-
5554	-	Initio Corporation	-	-
5555	-	Nefsis Corporation	-	-
5556	-	Stafflogix Corporation	-	-
5557	-	Citrix Online, Llc	-	-
5558	-	Syntest Technologies, Inc.	-	-
5559	-	Rancho Villas Restorante	-	-
5560	-	Myarch, Inc	-	-
5561	-	Sumo Newbury Park, Inc.	-	-
5562	-	Ekata Systems, Inc.	-	-
5563	-	Intronis	-	-
5564	-	Idi Magic Technologies Corporation	-	-
5565	-	Laxmi-Bhavna, Inc	-	-
5566	-	The Whitefield Group, Inc.	-	-
5567	-	Promorphics Llc	-	-
5568	-	Gericos Bar & Grill Dba Koko Beach	-	-
5569	-	Xora, Inc.	-	-
5570	-	Yhb Alabama Llc	-	-
5571	-	E-Scan Data Systems, Inc.	-	-
5572	-	Malabata, Llc	-	-
5573	-	Flurry, Inc.	-	-
5574	-	Qs Information Services, Inc.	-	-
5575	-	Maki Yaki 27	-	-
5576	-	Mi Casita, Mexican Restaurant	-	-
5577	-	Opendns, Inc.	-	-
5578	-	Smurti Corporation	-	-
5579	-	It2 Treasury Solutions, Inc.	-	-
5580	-	Arada Systems, Inc.	-	-
5581	-	Chima Charlotte Llc	-	-
5582	-	Zum Ritter Corporation Dba Valentino	-	-
5583	-	American Technology Solutionc Inc	-	-
5584	-	Connecticut Computer Consulting Company	-	-
5585	-	Tek People Online Inc.	-	-
5586	-	4108 Restaurant Corp.	-	-
5587	-	Luminescent Technologies, Inc.	-	-
5588	-	Biggies Clam Bar Rt 17 Llc	-	-
5589	-	Prudent Solutions Llc	-	-
5590	-	Packetvideo Corporation	-	-
5591	-	Mgl Americas Inc.	-	-
5592	-	Prognoz Corporation	-	-
5593	-	Restaurant Parque China	-	-
5594	-	Khushi Enterprise	-	-
5595	-	Xtreme Consulting, Inc.	-	-
5596	-	The Epitec Group, Inc.	-	-
5597	-	Sungard Public Sector Inc.	-	-
5598	-	Enprecis, Inc.	-	-
5599	-	Bellino's Restaurants Group Llc	-	-
5600	-	Dream Pc	-	-
5601	-	Serena Software, Inc.	-	-
5602	-	Sitscape Inc.	-	-
5603	-	Perimeter Internetworking Corp.	-	-
5604	-	Donovan's Of Bayside, Llc	-	-
5605	-	Aux Delices Gourmet Foods, Llc.	-	-
5606	-	Sysdata Consulting, Inc.	-	-
5607	-	Advanced Knowledge Systems Inc.	-	-
5608	-	Maharaja Food, Inc.	-	-
5609	-	Newton, Inc. D/B/A Taste In Mediterranean	-	-
5610	-	Ebis Logic, Inc.	-	-
5611	-	Signsite.Com, Inc.	-	-
5612	-	Silverpop Systems Inc.	-	-
5613	-	Vaptech Inc.	-	-
5614	-	Codenomicon Ltd.	-	-
5615	-	Priya Hospitality Llc.	-	-
5616	-	Sheraton Operating Corp D/B/A W Silicon Valley	-	-
5617	-	Zite, Inc.	-	-
5618	-	Gateway Hospitality	-	-
5619	-	Royal Hotel Group, Llc	-	-
5620	-	Perceptive Technologies, Inc.	-	-
5621	-	Mcobject Llc	-	-
5622	-	Ampl Optimization, Inc.	-	-
5623	-	Dbmotion, Inc.	-	-
5624	-	Matsu Fusion Restaurant Inc.	-	-
5625	-	Metafile Information Systems, Inc.	-	-
5626	-	Cideon America, Inc.	-	-
5627	-	Spartan Technologies, Inc.	-	-
5628	-	Eden Rock Communications, Llc	-	-
5629	-	601 Second Street Restaurant, Llc	-	-
5630	-	Diagnosisone, Inc.	-	-
5631	-	New China Buffet City Inc.	-	-
5632	-	Gladiator Innovations, Llc	-	-
5633	-	American Wanlida Development Co. Ltd.	-	-
5634	-	Locus Telecommunications, Inc.	-	-
5635	-	Wjh, Inc. D/B/A Matsu Sushi	-	-
5636	-	Tihuma Digital, Inc	-	-
5637	-	Business Management & Technology Solutions	-	-
5638	-	Fair Lakes Sakura, Inc. D/B/A Sakura Japanese Steak & Seafood House	-	-
5639	-	Northeast Consulting Works Llc.	-	-
5640	-	Mirrorlake Films	-	-
5641	-	Xitij Dba Arth Systems	-	-
5642	-	New Teapot Inc.	-	-
5643	-	Great Khans Mongolian Festival	-	-
5644	-	78th Street Lease Co	-	-
5645	-	Nextreaming Corporation	-	-
5646	-	Tomsk, Inc.	-	-
5647	-	Kong Tofu Corp.	-	-
5648	-	Santa Barbara Foods Inc. Dba Euro Cafe	-	-
5649	-	Jmr Enterprises, Inc.	-	-
5650	-	Ronald Lopes	-	-
5651	-	Logixml, Inc.	-	-
5652	-	Hic Network Security Solutions Llc	-	-
5653	-	Innovative Software Solutions, Inc.	-	-
5654	-	Chapter Three Inc	-	-
5655	-	Oceanic Time Warner Cable	-	-
5656	-	Skeeters Home Movies, Inc.	-	-
5657	-	Elan Hopitality, Llc	-	-
5658	-	Counterpoint Software, Inc.	-	-
5659	-	The Trizetto Group, Inc.	-	-
5660	-	Club Seven Management Llc	-	-
5661	-	Commvault Americas, Inc	-	-
5662	-	Ici Systems Inc	-	-
5663	-	Blue Sky Travel & Tours Llc	-	-
5664	-	Phred Developement Inc	-	-
5665	-	Keo Llc (Dba) Mai Thai Restaurant	-	-
5666	-	Infor Global Solutions, Inc.	-	-
5667	-	Client/Server Software Solutions, Inc., D/B/A Csss.Net	-	-
5668	-	Sushi Garden, Inc. D/B/A Sushi Garden	-	-
5669	-	Andera	-	-
5670	-	Ebiznet Solutions Inc.	-	-
5671	-	Vision Hospitality Group	-	-
5672	-	Lancet Software Development, Inc.	-	-
5673	-	Anthelio Healthcare Solutions, Inc.	-	-
5674	-	North Riverside Donuts Inc	-	-
5675	-	Vyshnavi Infotech Inc	-	-
5676	-	Ross Fish Co., Inc. Eastchester Fish Gourmet	-	-
5677	-	Verisurf Software Inc	-	-
5678	-	Savoy Restaurant, Inc.	-	-
5679	-	Premiere Pictures International, Inc.	-	-
5680	-	Vehicle Tracking Solutions Llc	-	-
5681	-	Arsin Corporation	-	-
5682	-	Westside Donut 40th Ventures Llc	-	-
5683	-	Urbancode, Inc.	-	-
5684	-	Krueger Systems, Inc.	-	-
5685	-	Oovoo, Llc	-	-
5686	-	Tristero Consulting	-	-
5687	-	Ursa Business Solutions	-	-
5688	-	P.B. Systems, Inc.	-	-
5689	-	Kelar Corporation	-	-
5690	-	Rollup Consulting Corporatian	-	-
5691	-	Css Solutions Inc.	-	-
5692	-	Falls View Grill	-	-
5693	-	Barto Restaurant Corp., D/B/A Bartolino's Restaurant	-	-
5694	-	Foredata Technology Inc.	-	-
5695	-	Groundwork Open Source, Inc.	-	-
5696	-	Cosmedent, Inc.	-	-
5697	-	Redprairie Corporation	-	-
5698	-	Best Western Glen Allen Hotel	-	-
5699	-	Implementation Solutions, Inc.	-	-
5700	-	Loyal3 Holdings, Inc.	-	-
5701	-	Avenue Restaurant Llc D/B/A Dream Hotel	-	-
5702	-	Bigtuna Japanese Restaurant, Inc.	-	-
5703	-	Kans Food Inc.	-	-
5704	-	Ecalix, Inc	-	-
5705	-	Globalenglish	-	-
5706	-	Trb Llc Dba Tin Roof Bistro	-	-
5707	-	Portico Club, Llc	-	-
5708	-	Purcellville Mill Llc Dba Magnolia's At The Mill	-	-
5709	-	Anxe Business Corp	-	-
5710	-	Prince Of India Restaurant & Bar	-	-
5711	-	Schoolwires, Inc.	-	-
5712	-	Indecon Solutions	-	-
5713	-	Serus Corporation	-	-
5714	-	Precision Development Services, Inc.	-	-
5715	-	Bliss Consulting Services Inc	-	-
5716	-	Visible Technologies	-	-
5717	-	Millennium Digital Technologies	-	-
5718	-	Cvl Technologies Inc	-	-
5719	-	Wevoice, Inc.	-	-
5720	-	Precision Hospitality Llc	-	-
5721	-	Acquity Group	-	-
5722	-	Intertech International Technologies, Inc	-	-
5723	-	Murthy Consultancy Services	-	-
5724	-	G & B, Llc D/B/A/ Royal Manor Catering	-	-
5725	-	360 Bp Llc	-	-
5726	-	Maxwell Systems, Inc.	-	-
5727	-	Emericon Llc	-	-
5728	-	Hypermedia Systems Inc.	-	-
5729	-	Samiti Technology, Inc	-	-
5730	-	Medical Web Technologies Llc	-	-
5731	-	Em Microelectronic -Us Inc.	-	-
5732	-	Appsmart, Inc.	-	-
5733	-	Informative Graphics Corporation	-	-
5734	-	Reverb Networks, Inc.	-	-
5735	-	Thompson Hospitality Services Llc	-	-
5736	-	Software Quality Leaders, Inc.	-	-
5737	-	Cereli, Inc D/B/A Mole Mexican Bar & Grill	-	-
5738	-	Gary Stone Inc.	-	-
5739	-	Computerized Facility Integration Llc	-	-
5740	-	Chun & Lee California Corporation	-	-
5741	-	Ulticom, Inc.	-	-
5742	-	Nextplane, Inc.	-	-
5743	-	Tomas Bakery	-	-
5744	-	Ratan Palace Llc	-	-
5745	-	Golfkick Llc	-	-
5746	-	Infobright Consulting	-	-
5747	-	Caarma Corporation	-	-
5748	-	Grant Caffe Llc	-	-
5749	-	Radisson Hotels & Resorts	-	-
5750	-	Marshall & Swift/Boeckh Llc	-	-
5751	-	Abacuss Software Technologies	-	-
5752	-	Second To None Ii Pizzeria Inc Dba Trio Pizzeria	-	-
5753	-	Pertino, Inc.	-	-
5754	-	Sabre Inc.	-	-
5755	-	Hampshire Hotels & Resorts, Llc	-	-
5756	-	The Cafe Llc	-	-
5757	-	Westport Computer	-	-
5758	-	Legalmatch.Com	-	-
5759	-	Lauriol Plaza, Inc.	-	-
5760	-	Tahiti Restaurant	-	-
5761	-	Adeneo Corp.	-	-
5762	-	Giuseppe's Trattoria	-	-
5763	-	Icon Enterprises (Dba Civicplus)	-	-
5764	-	Solusoft, Inc.	-	-
5765	-	Century South Beach Llc	-	-
5766	-	American Integrated Security Group Inc.	-	-
5767	-	Novell, Inc.	-	-
5768	-	Isi Information Solutions Inc.	-	-
5769	-	El Boqueron Ltd.	-	-
5770	-	Royal Garden, Inc. D/B/A Keum Ho Jung	-	-
5771	-	Creamtec, Llc	-	-
5772	-	St. Regis Princeville Resort	-	-
5773	-	System Services, Inc.	-	-
5774	-	Linkedge Technologies, Inc.	-	-
5775	-	Umiya Hospitality Group Dba Comfort Inn	-	-
5776	-	Ardan Labs Llc	-	-
5777	-	Intellicorp, Inc.	-	-
5778	-	Restaurant Adventures Llc	-	-
5779	-	Parth Consultants,Inc.	-	-
5780	-	York Construction Co Inc	-	-
5781	-	Netcom Learning, Inc.	-	-
5782	-	Teklead Corp.	-	-
5783	-	Bean By Bean Llc Dba Metro Cafe	-	-
5784	-	Extended Results, Inc.	-	-
5785	-	Manor Road Restaurant Corp.	-	-
5786	-	J&A Bakery, Ltd.	-	-
5787	-	Smilebox, Inc.	-	-
5788	-	Hwang Kim D/B/A Korea House Restaurant	-	-
5789	-	Ace Wireless	-	-
5790	-	Technofina Services, Inc.	-	-
5791	-	Genesis Engineering Services, Inc.	-	-
5792	-	Inxsol, Llc	-	-
5793	-	Realty Nashville Region, Llc	-	-
5794	-	Tinyco, Inc.	-	-
5795	-	Sungard Institutional Brokerage Inc.	-	-
5796	-	Founder Club Llc	-	-
5797	-	Ogmento, Inc.	-	-
5798	-	Karras, Inc.	-	-
5799	-	Cloud Sherpas Llc	-	-
5800	-	Digital Instinct Llc	-	-
5801	-	Two Toasters Llc	-	-
5802	-	Control Systems Inc	-	-
5803	-	Shopzilla, Inc.	-	-
5804	-	List Partners, Inc.	-	-
5805	-	Qc Metrix, Inc.	-	-
5806	-	Infineta Systems	-	-
5807	-	Ilink Investments Llc	-	-
5808	-	Yeonmun Inc.	-	-
5809	-	Ecbytes Inc	-	-
5810	-	Annapolis Marina Restaurant Inc. T/A Carrol's Cree	-	-
5811	-	Kalms Inc (Dba Kraemer Chevron)	-	-
5812	-	208 Comfort Cafe Llc	-	-
5813	-	Config Consultants Corporation	-	-
5814	-	Euler Technologies, Inc.	-	-
5815	-	Storvisor Inc.	-	-
5816	-	Werum Software & Systems America, Inc.	-	-
5817	-	Francesca's By The River	-	-
5818	-	Maxifier Inc.	-	-
5819	-	Rcn Telecom Services Lehigh, Llc	-	-
5820	-	Tjn Consulting Llc (D/B/A Dataxstream)	-	-
5821	-	Inforika Technology Solutions, Inc.	-	-
5822	-	Rnl Corp Dba The Colony Pub	-	-
5823	-	Gemean Corporation	-	-
5824	-	Shin Nihon Kosan	-	-
5825	-	It Allianz, Llc Dba Esolutech	-	-
5826	-	Objectvideo, Inc.	-	-
5827	-	Zapondemand Llc.	-	-
5828	-	Thomas & Tijore Mgmt. Inc.	-	-
5829	-	The Holman Group	-	-
5830	-	Intirat Corporation	-	-
5831	-	Autosoez, Inc.	-	-
5832	-	Sass Industries Inc	-	-
5833	-	Amsol Inc	-	-
5834	-	Garrettcom, Inc.	-	-
5835	-	Midcom Corporation	-	-
5836	-	Palo Alto Software, Inc.	-	-
5837	-	Tailwind Associates	-	-
5838	-	A&S Brothers Food Mart, Inc. D/B/A Bp Foodmart	-	-
5839	-	Jase Systems Llc	-	-
5840	-	Ru & Rott, Inc.	-	-
5841	-	Csr Systems Inc	-	-
5842	-	Pudgy's Pizza & Pasta Inc.	-	-
5843	-	West Kabul Kabab Restaurant	-	-
5844	-	Majestic Systems Integration Co./Nashville, Inc.	-	-
5845	-	Frequentz, Llc	-	-
5846	-	Wisey's #1, Llc	-	-
5847	-	Daniel Williams	-	-
5848	-	Itek Consulting Services Inc.	-	-
5849	-	Uc4 Software, Inc.	-	-
5850	-	Tfc Services, Inc	-	-
5851	-	Computer Drive Of Skokie, Inc.	-	-
5852	-	No Hassle Computing, Llc	-	-
5853	-	Sung Won Co Llc	-	-
5854	-	Paradise Biryani Pointe Corp	-	-
5855	-	M D On-Line, Inc.	-	-
5856	-	American Management Enterprises, Inc.	-	-
5857	-	Gent's Enterprises Inc D/B/A Kabooz's Bar & Grill	-	-
5858	-	Kentrox, Inc.	-	-
5859	-	Pen Donuts Inc. Dba Crown Donuts	-	-
5860	-	Vypak Corporation	-	-
5861	-	Cockos, Inc.	-	-
5862	-	Project Performance Corporation	-	-
5863	-	Bump Technologies, Inc.	-	-
5864	-	Manraj Inc D/B/A Bukhara Indian Bistro	-	-
5865	-	Airpointe Of New Hampshire Inc	-	-
5866	-	Metanoia Software Solution Usa Inc	-	-
5867	-	Maintenancenet, Inc.	-	-
5868	-	Danet Inc	-	-
5869	-	American It Group, Inc	-	-
5870	-	Psc	-	-
5871	-	Al Forno Pizzeria	-	-
5872	-	Passport Health Communications, Inc.	-	-
5873	-	Ondine Computing, Inc - (Dba) Cafe Normandie	-	-
5874	-	Isystems, Llc	-	-
5875	-	General Stewert Management Llc	-	-
5876	-	Avm Subway Llc	-	-
5877	-	Mican Technologies Llc.	-	-
5878	-	Peak Internet	-	-
5879	-	Vaap Foods, Inc.	-	-
5880	-	Santorini Llc Dba Nora Restaurant	-	-
5881	-	Il Calcio.Inc	-	-
5882	-	Camstar Systems, Inc.	-	-
5883	-	Ideablade, Inc.	-	-
5884	-	Momoyama,Inc	-	-
5885	-	Ajel Technologies, Inc	-	-
5886	-	Vea Inc	-	-
5887	-	Eastern Security System Inc.	-	-
5888	-	Rivet Software, Inc.	-	-
5889	-	986 Restaurant Corp.	-	-
5890	-	Park Computer Systems, Inc.	-	-
5891	-	Amdocs Software Technologies Inc.	-	-
5892	-	Wah May Restaurant	-	-
5893	-	Financial Tracking Technologies Llc	-	-
5894	-	Kathmandu Restaurant, Inc	-	-
5895	-	Textguard, Inc.	-	-
5896	-	Computer Graphics & Networking, Inc.	-	-
5897	-	Paperless Business Systems, Inc.	-	-
5898	-	Woo Ri Village,Inc	-	-
5899	-	Yes Financial Research Inc.	-	-
5900	-	Discretix Inc.	-	-
5901	-	Kabam	-	-
5902	-	Ulysses Voyage Restaurant, Inc.	-	-
5903	-	Beechwoods Software, Inc.	-	-
5904	-	Porter Lee Corporation	-	-
5905	-	Treehouse Interactive, Inc.	-	-
5906	-	Data Delivery Services Inc	-	-
5907	-	Computer Careers And Consulting, Inc.	-	-
5908	-	Allfon, Llc	-	-
5909	-	Jumptap, Inc.	-	-
5910	-	Que Pasta Italia,Llc	-	-
5911	-	World Traditional Taekwondo Union	-	-
5912	-	Chinasoft International Inc.	-	-
5913	-	Consona Corporation, Inc.	-	-
5914	-	Jjwave Corp.	-	-
5915	-	Capital Legal Solutions, Llc	-	-
5916	-	Edgilent Corp	-	-
5917	-	Asetek Usa, Inc.	-	-
5918	-	Idc Investments, Inc. D.B.A. The Inn At Deep Canyon	-	-
5919	-	Erp Experts, Llc	-	-
5920	-	Liverail, Inc.	-	-
5921	-	New Sunrise Restaurant Llc	-	-
5922	-	Trickplay Inc.	-	-
5923	-	Bon Giovanni Restaurant	-	-
5924	-	Pfc, Inc. D/B/A Popeyes Famous Chicken - Gainesville	-	-
5925	-	Tharo Systems Incorporated	-	-
5926	-	Cedexis, Inc.	-	-
5927	-	Trialpay, Inc.	-	-
5928	-	Puerto Vallarta Llc	-	-
5929	-	Ascendant Technology, Llc	-	-
5930	-	Prodigysoftware Group Inc	-	-
5931	-	Ddc Advocacy	-	-
5932	-	Vector Seismic Data Processing, Inc.	-	-
5933	-	Cooking Papa, Inc.	-	-
5934	-	Via Telecom, Inc.	-	-
5935	-	Detroit Name Plate Etching Company	-	-
5936	-	L.T.D. Enterprises Dba Cattleman's Cafe	-	-
5937	-	Advanced Consulting Services Inc.	-	-
5938	-	Cafe Brasil	-	-
5939	-	Cardsmart Technologies, Inc.	-	-
5940	-	Natalia Donuts Inc	-	-
5941	-	Sai Restaurant Inc Dba Masala Art	-	-
5942	-	Aeria Games & Entertainment, Inc.	-	-
5943	-	Sugarsync, Inc.	-	-
5944	-	Sk C&C Usa, Inc. D/B/A Corfire	-	-
5945	-	Nebula, Inc.	-	-
5946	-	C & H Management, Inc.	-	-
5947	-	Coremedia Systems, Inc.	-	-
5948	-	Genesis Networks Integration Services Llc	-	-
5949	-	American Registry For Internet Numbers Ltd.	-	-
5950	-	Janus Technologies, Inc.	-	-
5951	-	Infodesk, Inc.	-	-
5952	-	Raritan Americas, Inc.	-	-
5953	-	Taylor Technical Services Inc.	-	-
5954	-	764 Gomez Restaurant Corporation	-	-
5955	-	Yale Consulting Inc	-	-
5956	-	Sung Bak Sa Corporation	-	-
5957	-	Graphdive Inc.	-	-
5958	-	Ma Anpurna, Inc., Dba Holiday Inn Express	-	-
5959	-	Healthunity Corporation	-	-
5960	-	Cima Software Corporation	-	-
5961	-	Second Chance Enterprises Llc	-	-
5962	-	Taro Sushi Ny Inc	-	-
5963	-	Tely Labs, Inc.	-	-
5964	-	Momotaro Food Inc	-	-
5965	-	Ak Consulting Services Inc.	-	-
5966	-	Fastnet Software International, Inc.	-	-
5967	-	Viralheat, Inc.	-	-
5968	-	U10c Boba, Inc.	-	-
5969	-	Hotel Pennsylvania	-	-
5970	-	Solutionset	-	-
5971	-	Plato Learning Inc. (D/B/A Edmentum)	-	-
5972	-	Smc Networks, Inc.	-	-
5973	-	Rlj Lodging Trust, Lp	-	-
5974	-	Vitera Healthcare Solutions Llc	-	-
5975	-	Kvl Solutions Inc	-	-
5976	-	Havok.Com Inc	-	-
5977	-	Opnet Technologies, Inc.	-	-
5978	-	Brofish Llc D/B/A/ Blue Ribbon Sushi Bar Grill	-	-
5979	-	Tkr Technologies Inc.	-	-
5980	-	Elmer's Diner, Inc.	-	-
5981	-	Mindsource Inc	-	-
5982	-	Exacttarget, Inc.	-	-
5983	-	Invoicing And Management Services Inc	-	-
5984	-	El Rancho Grande Mexican Restaurant	-	-
5985	-	Citizant, Inc.	-	-
5986	-	Titanium, Inc.	-	-
5987	-	Web Bugs, Inc.	-	-
5988	-	Ducom Systems Inc.	-	-
5989	-	4medica	-	-
5990	-	Komli Media Incorporated	-	-
5991	-	Symphony Teleca Services, Inc.	-	-
5992	-	Yk International, Inc.	-	-
5993	-	Jungjoy, Inc.	-	-
5994	-	Asap Automation Llc	-	-
5995	-	Medhok Healthcare Solutions, Llc	-	-
5996	-	Vindicia, Inc.	-	-
5997	-	Boxtone, Inc.	-	-
5998	-	Tata Industries Ltd	-	-
5999	-	A.M. Castaneda Inc. Dba Santana's Mexican Food	-	-
6000	-	Visionary Integration Professionals, Llc	-	-
6001	-	Malnati Organization, Inc.	-	-
6002	-	1384 Bay Street Pub D/B/A Danny Blaine's Restauran	-	-
6003	-	Simtech Solutions, Inc.	-	-
6004	-	Red Bumper Llc	-	-
6005	-	Pali Solutions Inc	-	-
6006	-	Bravepoint, Inc.	-	-
6007	-	J. M. Macias, Inc.	-	-
6008	-	Rani Mahal Fine Indian Cuisine Inc.	-	-
6009	-	C2 Design Automation Dba Forte Design Systems	-	-
6010	-	Ichiban Sushi 1, Inc.	-	-
6011	-	Zama Limited, Llc	-	-
6012	-	Select Hotels Group, Llc	-	-
6013	-	Lucky Lemons At Nantasket, Inc.	-	-
6014	-	Atlas Intelligence, Inc.	-	-
6015	-	N.N.D.A. Inc D/B/A The Barile's Planet Pizza	-	-
6016	-	Casey's Steaks And Bbq Llc	-	-
6017	-	Imagem, Inc.	-	-
6018	-	Cn-Tec, Llc	-	-
6019	-	Brain Zoo Studios	-	-
6020	-	Sierra Cybernetics, Inc.	-	-
6021	-	Global Portfolio Management Systems, Llc	-	-
6022	-	Xceed Infotek, Inc.	-	-
6023	-	Cillium Corp.	-	-
6024	-	Insite Software Solutions	-	-
6025	-	Viryanet, Inc.	-	-
6026	-	The Mexican Restaurant Inc.	-	-
6027	-	Sarabeth's	-	-
6028	-	En Los Feliz, Inc.	-	-
6029	-	Dynamo Development, Inc.	-	-
6030	-	Vantageforce Inc	-	-
6031	-	Cgnet Services International	-	-
6032	-	Sankalp & Shanti Llc.	-	-
6033	-	Allenport Co	-	-
6034	-	Broy Group, Inc	-	-
6035	-	Five Point Partners, Llc	-	-
6036	-	Parpas America Corporation	-	-
6037	-	Dendrite International, Inc.	-	-
6038	-	Jump Tokyo	-	-
6039	-	Antica Posta Ristorante, Inc	-	-
6040	-	Thomson Financial Llc	-	-
6041	-	Koizumi Masaki & Taiji Mineo Ptrs	-	-
6042	-	Cbeyond Communications, Llc	-	-
6043	-	Capital Consultancy Services, Inc	-	-
6044	-	Capita Technologies Inc	-	-
6045	-	Biztech	-	-
6046	-	The Black Bass Hotel Associates, Inc.	-	-
6047	-	Double R Foods Inc	-	-
6048	-	Smart Pizza Systems Inc.	-	-
6049	-	Doingwap.Net Inc.	-	-
6050	-	Dante Consulting, Inc.	-	-
6051	-	Uniquely Mia, Dba: Radha Consulting	-	-
6052	-	Bakersfield Investments, Inc.	-	-
6053	-	New Dream Network, Llc	-	-
6054	-	Simply Thai Corner, Llc.Inc.	-	-
6055	-	Gdg Lynchburg Hotel, Llc	-	-
6056	-	Machana Associates, Inc.	-	-
6057	-	Indusoft, Inc.	-	-
6058	-	Bellerose Subway Inc.	-	-
6059	-	Tt Government Solutions, Inc.	-	-
6060	-	Argos, Inc.	-	-
6061	-	Delizia Restaurant Corp.	-	-
6062	-	Alliance Tech, Inc.	-	-
6063	-	Trans Am Travel, Inc.	-	-
6064	-	Nyvasoft Inc	-	-
6065	-	It By Design, Inc	-	-
6066	-	Nastec International, Inc.	-	-
6067	-	Whitehead Enterprises Llc	-	-
6068	-	Tejes Services Inc	-	-
6069	-	The Nut Club Ltd.	-	-
6070	-	Aurora Strategies, Inc.	-	-
6071	-	Chopstick Express, Inc.	-	-
6072	-	Global Computer Enterprises, Inc.	-	-
6073	-	Korea Rest Llc	-	-
6074	-	Peaksware Llc	-	-
6075	-	Xamarin, Inc.	-	-
6076	-	Diplomat Hotel Corporation	-	-
6077	-	Symphony Services Corp.	-	-
6078	-	Scenic Homes Dba Phoenicis Restaurant	-	-
6079	-	Generatione Consulting, Llc	-	-
6080	-	Personal Health Labs, Llc	-	-
6081	-	Wireless Generation, Inc.	-	-
6082	-	Public Verification Inc	-	-
6083	-	Lifesaver Software, Inc.	-	-
6084	-	Velspir Enterprises Inc	-	-
6085	-	Arirang Of Japan, Inc.	-	-
6086	-	Brother Bruno Of Monticello, Inc.	-	-
6087	-	Wojdyla Enterprises Inc. Dba Bohemian Garden Resta	-	-
6088	-	Benjarong Thai Restaurant	-	-
6089	-	Lucidity Consulting Group Lp	-	-
6090	-	Employmentscape, Inc.	-	-
6091	-	Vanceinfo Technologies Inc.	-	-
6092	-	Lanfen	-	-
6093	-	Club Quarters Management Co., Llc	-	-
6094	-	Om Consultancy Services Inc.	-	-
6095	-	News America Incorporated	-	-
6096	-	Devicescape Software, Inc.	-	-
6097	-	Life In Crystal Llc	-	-
6098	-	Televes Usa, Llc	-	-
6099	-	Meskouris Bros, Inc	-	-
6100	-	Snapper Inn, Inc.	-	-
6101	-	Mullen Communications, Inc.	-	-
6102	-	Hankang, Inc.	-	-
6103	-	Live365, Inc.	-	-
6104	-	Gebbs Software International Inc.	-	-
6105	-	Ubiquity Recordings, Inc.	-	-
6106	-	Internet Broadcasting Corp	-	-
6107	-	Mark's Mex., Inc.	-	-
6108	-	Infonox On The Web, Inc.	-	-
6109	-	Incapture Technologies Llc	-	-
6110	-	Elitesoft Inc	-	-
6111	-	3j's Specialty Llc	-	-
6112	-	Pht Corporation	-	-
6113	-	Daniel Fries Productions, Inc.	-	-
6114	-	Mesa Hotels Llc	-	-
6115	-	Fuhu, Inc.	-	-
6116	-	Chat American Grill	-	-
6117	-	Dit Drug Information Technologies Inc.	-	-
6118	-	R.B. -Love Boat Group, Inc.	-	-
6119	-	Blue Slate Solutions	-	-
6120	-	Proval Technologies, Inc	-	-
6121	-	Shopvisible, Llc	-	-
6122	-	Application Security, Inc.	-	-
6123	-	Multimedia Abacus Corporation Dba Cerenade	-	-
6124	-	E C Group, Inc. D/B/A Kokeeri	-	-
6125	-	New Shanghai Restaurant	-	-
6126	-	Sy1, Lp	-	-
6127	-	Now Solutions Inc.	-	-
6128	-	Knowrtal Llc	-	-
6129	-	Kosher Class, Inc. Dba Glatt-A-La-Carte	-	-
6130	-	Anco Holding, Inc.	-	-
6131	-	Jumpstart Wireless Corporation	-	-
6132	-	Nicenet Systems Inc	-	-
6133	-	Bam Corporation	-	-
6134	-	Rhdynamics, Inc.	-	-
6135	-	Adelphic, Inc.	-	-
6136	-	V1, Llc Dba Tgi Fridays #1561	-	-
6137	-	Startup Weekend	-	-
6138	-	2641 Restaurant Corp.	-	-
6139	-	Vox, Inc.	-	-
6140	-	Business Integration Technology Solutions, Inc.	-	-
6141	-	Compu-Data Intenational, Llc	-	-
6142	-	Pizza Rustica	-	-
6143	-	New Cafe Concepts, Inc	-	-
6144	-	Interactive Data Managed Solutions, Llc	-	-
6145	-	Ascendix Technologies, Inc.	-	-
6146	-	Eunify, Inc.	-	-
6147	-	Ipexpert, Inc.	-	-
6148	-	Martech Computers	-	-
6149	-	Sure Destiny, Llc	-	-
6150	-	Digital Arts America, Inc.	-	-
6151	-	Apt Source Inc	-	-
6152	-	Scalebase, Inc.	-	-
6153	-	Quality In Motion, Inc.	-	-
6154	-	Latista Technologies, Inc	-	-
6155	-	Antonello Ristorante Inc.	-	-
6156	-	Mncl, Inc.	-	-
6157	-	Infian Llc	-	-
6158	-	Booklyn Burns	-	-
6159	-	Autonomy Digital Llc	-	-
6160	-	Etilize, Inc.	-	-
6161	-	Mimic Technologies, Inc.	-	-
6162	-	Paulk & Paulk, Inc.	-	-
6163	-	Idle Games, Inc.	-	-
6164	-	Hoover Foods, Inc.	-	-
6165	-	Proconceptions Llc	-	-
6166	-	Spectrum It Global, Inc.	-	-
6167	-	Boustany Investment Group, Inc.(Alladin's Eatery)	-	-
6168	-	Vfs Fire & Security	-	-
6169	-	Los Amigos Of Seneca, Inc.	-	-
6170	-	Medin And Elcot Corp.	-	-
6171	-	Netech Corporation	-	-
6172	-	Cocomo Island Inc. Dba Sushi Island	-	-
6173	-	Syncada Llc	-	-
6174	-	Applied Flow Technology Corporation	-	-
6175	-	United Computer Solutions Inc.	-	-
6176	-	Penntex Group, Llc	-	-
6177	-	Pete & Lou Inc	-	-
6178	-	Nassau Sushi Cafe Corp	-	-
6179	-	Lemek Llc	-	-
6180	-	Computer Zone, Inc	-	-
6181	-	Kamakura Japanese Restaurant	-	-
6182	-	Pigeon Point Systems Llc	-	-
6183	-	Mono Jb, Inc.	-	-
6184	-	Systems In Motion, Llc	-	-
6185	-	Noran-Land Engineering Corp. Dba Nei Software	-	-
6186	-	Datasoft Software Consulting Inc.	-	-
6187	-	Pierce Technology Corporation	-	-
6188	-	Mr Corp. ; Dba 'Avellino's Pizza And Grille'	-	-
6189	-	La Casa Anaheim Resort Llc	-	-
6190	-	Vertex, Incorporated	-	-
6191	-	Pei Wei Asian Diner Inc	-	-
6192	-	S.A.V. Associates Inc.	-	-
6193	-	Donovan Hospitality Llc	-	-
6194	-	Premier Retail Networks	-	-
6195	-	Rog Florida Llc	-	-
6196	-	El Rodeo-Pearl Inc	-	-
6197	-	Capstone Technology Corporation	-	-
6198	-	Another Slice, Inc. D.B.A Domino's Pizza	-	-
6199	-	Patient Logic, Inc.	-	-
6200	-	Gibson Pl Lodging Realty Inc. T/A Radisson Hotel Of Freehold	-	-
6201	-	Don Nyc, Inc.	-	-
6202	-	Dietz Stadium Diner Of Kingston, Inc.	-	-
6203	-	Koger Inc.	-	-
6204	-	Thinking Solution Inc.	-	-
6205	-	My Alarm Center	-	-
6206	-	Quiznos Classic Subs	-	-
6207	-	Iolo Technologies, Llc	-	-
6208	-	Ensuant Inc.	-	-
6209	-	Cibergate, Inc D/B/A It First Source	-	-
6210	-	Allot Communications, Inc.	-	-
6211	-	Seamless North America, Llc	-	-
6212	-	Music Mastermind, Inc.	-	-
6213	-	Bmsl Properties Nc Inc	-	-
6214	-	Signaldemand, Inc.	-	-
6215	-	Equator, Llc	-	-
6216	-	First Samurai Inc.	-	-
6217	-	Twc Enterprises Iii Llc D/B/A Sorrento Ristorante	-	-
6218	-	Bullseye Jobs, Inc.	-	-
6219	-	Dore- Art Corporation Dba Arthur's Tavern	-	-
6220	-	Enterasys Networks, Inc.	-	-
6221	-	Epocrates, Inc.	-	-
6222	-	Technical-Link N. America	-	-
6223	-	Exuberant, Inc.	-	-
6224	-	Zoo Digital Inc	-	-
6225	-	Carlson, Inc.	-	-
6226	-	Nemetschek Vectorworks	-	-
6227	-	Bugsy Holdings Inc	-	-
6228	-	Engage Information Incorporated	-	-
6229	-	Moby Dick Iv	-	-
6230	-	Flexstar Technology, Inc	-	-
6231	-	Neolane, Inc.	-	-
6232	-	Varolii Corporation	-	-
6233	-	Iso Claims Partners	-	-
6234	-	Zeno, Inc.	-	-
6235	-	Mind Over Machines, Inc.	-	-
6236	-	Red Bean System, Inc. T/A Sala Thai (U Street)	-	-
6237	-	Neversoft Entertainment, Inc.	-	-
6238	-	Integrity On-Site, Llc	-	-
6239	-	Sqa Services, Inc.	-	-
6240	-	Bjg Food Corp	-	-
6241	-	Great Lake Data Systems, Inc.	-	-
6242	-	Tacit Knowledge, Inc.	-	-
6243	-	Red Hot & Blue	-	-
6244	-	Inhance Digital Corporation	-	-
6245	-	Bartronics America, Inc	-	-
6246	-	Lenards Llc	-	-
6247	-	Nai, Inc.	-	-
6248	-	Jpl Int'L Inc	-	-
6249	-	Kajal Rani Inc	-	-
6250	-	Arzina Hossaini	-	-
6251	-	Iclops, Llc	-	-
6252	-	Soluxions Llc	-	-
6253	-	Commerce Solutions, Inc.	-	-
6254	-	Federated Sample, Llc	-	-
6255	-	L-3 Communications, Security & Detection Systems	-	-
6256	-	Thai Smile Inc	-	-
6257	-	Pauls Place	-	-
6258	-	American It Associates, Inc.	-	-
6259	-	Banana Leaf Llc	-	-
6260	-	Togetherville, Inc.	-	-
6261	-	Santini's Oakton, Inc.	-	-
6262	-	Mirror Plus Technologies, Inc.	-	-
6263	-	Airport Shoppes, Corp.	-	-
6264	-	Tss Software Corporation	-	-
6265	-	Michell Enterprises Llc	-	-
6266	-	Quickpay Corp.	-	-
6267	-	Hotel Villa Portofino	-	-
6268	-	Saigon Saigon, Inc.	-	-
6269	-	Snibbe Interactive	-	-
6270	-	A&R Foods Inc. T/A Burger King Restaurant	-	-
6271	-	Datpro Inc.	-	-
6272	-	Capscient Corporation	-	-
6273	-	Starlims Corporation	-	-
6274	-	Fluency Forums Corporation	-	-
6275	-	Pageflex, Inc.	-	-
6276	-	Archibald's Char-Broiler Drive Thru	-	-
6277	-	Krokis Corp	-	-
6278	-	Jhoon, Inc.	-	-
6279	-	Rocc Suniland, Llc	-	-
6280	-	Hhp Enterprises Llc	-	-
6281	-	Enome, Inc.	-	-
6282	-	Yen's Chinese Restaurant, Inc.	-	-
6283	-	Kryptiq Corporation	-	-
6284	-	Ram Tech Systems, Inc	-	-
6285	-	Pine Tree House Inc.	-	-
6286	-	Cognitive It Solutions, Llc	-	-
6287	-	Airwatch, Llc	-	-
6288	-	Newtown, Inc. D/B/A Taste In Mediterranean	-	-
6289	-	Rational Systems, Llc	-	-
6290	-	Peritus Information Services Ltd	-	-
6291	-	Dras Inc Dba Guru Indian Cuisine	-	-
6292	-	Alex & Cherry Corporation	-	-
6293	-	Rainstor, Inc.	-	-
6294	-	Tysons National, Inc.	-	-
6295	-	Getfused, Inc.	-	-
6296	-	North Carolina Community Care Networks Inc.	-	-
6297	-	Take Solutions, Inc	-	-
6298	-	Westwood Noodle Kitchen, Inc.	-	-
6299	-	Jolly Hotel Madison Towers	-	-
6300	-	Tnj Management, Llc	-	-
6301	-	Fiserv Solutions, Inc.	-	-
6302	-	Peninsula New York Hotel Llc	-	-
6303	-	Klout, Inc.	-	-
6304	-	Ba-Insight, Llc	-	-
6305	-	Immunity, Inc.	-	-
6306	-	Creek Systems, Inc.	-	-
6307	-	Integrand Software, Inc.	-	-
6308	-	Rhinoceros Visual Effects And Design, Llc.	-	-
6309	-	Siesta Motor Inn, Inc.	-	-
6310	-	Guisos Lurdel Of San Antonio, Llc	-	-
6311	-	Kaaga Technologies, Inc	-	-
6312	-	Telly, Inc.	-	-
6313	-	Crystalfish Inc.	-	-
6314	-	Fine Solutions	-	-
6315	-	Praxis Interactive Inc.	-	-
6316	-	D & H Group, Inc.	-	-
6317	-	Yessoft Llc	-	-
6318	-	Tlc Refreshments, Inc.	-	-
6319	-	Estream Technology Solutions, Llc	-	-
6320	-	Splendtek Inc	-	-
6321	-	Shrin Hospitality Llc	-	-
6322	-	Harrington Hotel Company, Inc.	-	-
6323	-	Npario	-	-
6324	-	China Way Inc	-	-
6325	-	Samker Corporation Dba The Offstage Group	-	-
6326	-	Siliconaid Solutions, Inc.	-	-
6327	-	Sycamore Leaf Solutions, Llc	-	-
6328	-	4xor Corporation	-	-
6329	-	Devs Foods, Llc	-	-
6330	-	Sigma Holdings, Llc Dba Fifth Gear	-	-
6331	-	Cssn, Inc.	-	-
6332	-	Spring Technologies, Inc.	-	-
6333	-	Electionear, Inc.	-	-
6334	-	Reliance Information Technology,Inc	-	-
6335	-	Lal Qila, Inc.	-	-
6336	-	A&S Pizza Of Virginia D/B/A Sal's Pizzeria	-	-
6337	-	Cafe Milan, Inc.	-	-
6338	-	Ffpb Mechanicsburg, Llc Dba Bombay Junction Restaurant	-	-
6339	-	Election Administrators Llc	-	-
6340	-	Phoenix Analysis & Design Technologies, Inc.	-	-
6341	-	Gina's Pizza Inc	-	-
6342	-	Magilink Management, Inc.	-	-
6343	-	Dynamix Usa, Llc	-	-
6344	-	Nextace Corporation	-	-
6345	-	General Dynamics Fidelis Cybersecurity Solution	-	-
6346	-	Intech Bizsolutions	-	-
6347	-	Paperfree Corporation	-	-
6348	-	Verance Corporation	-	-
6349	-	315 Fifth Avenue Inc., D/B/A Third Floor Cafe	-	-
6350	-	Best Restaurant Inc.	-	-
6351	-	Nexaweb Technologies, Inc.	-	-
6352	-	Nalanda Technology, Inc	-	-
6353	-	Dynamic Object Language Labs, Inc	-	-
6354	-	Ccp North America, Inc.	-	-
6355	-	Locust Avenue Associates, Llc. T/A	-	-
6356	-	Sidney B. Bowne & Son, Llp	-	-
6357	-	Koll Group, Corp.	-	-
6358	-	Ezwings Processing	-	-
6359	-	Omgeo Llc	-	-
6360	-	Optimal Office Solutions Llc	-	-
6361	-	Life3d Llc	-	-
6362	-	Rethink Group Inc	-	-
6363	-	Matrix42 Usa, Inc.	-	-
6364	-	Network Hardware Resale	-	-
6365	-	Commtech Consulting Services, Inc.	-	-
6366	-	Ba Technolinks Corp	-	-
6367	-	Revitas, Inc.	-	-
6368	-	Tangent Computers Inc	-	-
6369	-	Cyber Professionals Inc.	-	-
6370	-	Wb King Pizza And Donut Restaurant	-	-
6371	-	Crown Point Catering, Inc.	-	-
6372	-	Vap Technology Group	-	-
6373	-	I Scope Technology Inc.	-	-
6374	-	The Workshop Entertainment, Inc.	-	-
6375	-	Cenzic, Inc.	-	-
6376	-	Mccamish Systems, Llc	-	-
6377	-	Qsr Management Llc	-	-
6378	-	Antonicola, Inc.	-	-
6379	-	Midwest Hospitality, Inc	-	-
6380	-	Wireless Matrix Usa Corp.	-	-
6381	-	G And D Restaurant Associates Llc	-	-
6382	-	Papatzul Llc	-	-
6383	-	Webfilings Llc	-	-
6384	-	Little Chinese Kitchen	-	-
6385	-	Bloomfire, Inc.	-	-
6386	-	Ray Ray Thai Inc. D/B/A National	-	-
6387	-	Unified Systems, Inc.	-	-
6388	-	Hampton Inn Sepulveda, Inc.	-	-
6389	-	L'Opera, Inc.	-	-
6390	-	Asian Inc. T/A Cafe Asia	-	-
6391	-	G. Edward Business Solutions Inc	-	-
6392	-	Keyhole Software	-	-
6393	-	Tutto Ii Giorno Ii D/B/A Tutto Il Giorno	-	-
6394	-	Ark Restaurants Corp	-	-
6395	-	Virrtuo Techsoft Inc	-	-
6396	-	Horizon Technology Partners, Inc.	-	-
6397	-	L & W Inc. Full House Seafood Restaurant	-	-
6398	-	Next Millennium Systems	-	-
6399	-	Value Place Property Management, Llc	-	-
6400	-	Maison Louisiane Catering	-	-
6401	-	Psaras Etal Partnership (Dba Harry's Cafe #2)	-	-
6402	-	Brinker International, Inc.; Dba Chili's Grill And Bar	-	-
6403	-	Sichuan Bistro, Inc.	-	-
6404	-	Razorsight Corporation	-	-
6405	-	Navinet, Inc.	-	-
6406	-	Westin Engineering, Inc.	-	-
6407	-	Capstone Worldwide Inc.	-	-
6408	-	Znode, Inc.	-	-
6409	-	Education Management Solutions, Inc.	-	-
6410	-	Talavera Coral Gables Llc	-	-
6411	-	Online Services Corporation Llc	-	-
6412	-	El Meson Cafe	-	-
6413	-	Microsoft Caribbean, Inc.	-	-
6414	-	Professional Innovations, Inc.	-	-
6415	-	Mobile Defense, Inc.	-	-
6416	-	Snug Harbor Inc	-	-
6417	-	Global Sourcing Group, Inc.	-	-
6418	-	Top Network Solutions, Inc.	-	-
6419	-	Tangerine Solutions Llc	-	-
6420	-	Cosmopolitan Broadcasting Corporation	-	-
6421	-	Lynuxworks, Inc.	-	-
6422	-	Lin Manufacturing & Design, Llc	-	-
6423	-	Acc Technical Services	-	-
6424	-	Fodoan Corporation, Inc.; Dba Capriccio	-	-
6425	-	Luitporia Software Consultancy Inc.	-	-
6426	-	Black Watch Productions Inc	-	-
6427	-	Access Innovations, Inc.	-	-
6428	-	Jordan Specialty Food	-	-
6429	-	Final Cut La, Inc.	-	-
6430	-	Link-Systems International, Inc.	-	-
6431	-	Skm Solutions Corp	-	-
6432	-	Quintel-Mc, Inc.	-	-
6433	-	Park Sarang, Inc	-	-
6434	-	T2 Systems, Inc.	-	-
6435	-	Trustedid, Inc.	-	-
6436	-	Totally Networked, Inc	-	-
6437	-	E21 Corporation	-	-
6438	-	Global Smart Business Llc	-	-
6439	-	Spawn Labs, Inc.	-	-
6440	-	Villa Mia Inc	-	-
6441	-	Chang Jiang Enterprise, Inc	-	-
6442	-	T&J Fresh Co.	-	-
6443	-	Inprisol, Inc.	-	-
6444	-	Bob's Restaurant	-	-
6445	-	Accretive Technology Group	-	-
6446	-	Mechanical Enterprises, Inc.	-	-
6447	-	Ritesh Real State Corporation	-	-
6448	-	Iron Data Solutions, Llc	-	-
6449	-	S&H North America	-	-
6450	-	Optionmonster Holdings, Inc.	-	-
6451	-	Phlox Design	-	-
6452	-	Ignited Games, Inc.	-	-
6453	-	Poor Henry's, Inc., Dba Ravello's	-	-
6454	-	Quality Check, Inc.	-	-
6455	-	Best Vision Family Corp.	-	-
6456	-	Emerald Health Services, Llc	-	-
6457	-	Regl Corp. D/B/A Pizza Classica	-	-
6458	-	Lok Wok Corporation	-	-
6459	-	Exigen Insurance Solutions, Inc.	-	-
6460	-	Woo Lae Oak Food Group Llc	-	-
6461	-	Stella Nova Technologies Inc.	-	-
6462	-	Global Ptm, Inc.	-	-
6463	-	House Of Japan Restaurant	-	-
6464	-	Adny, Inc.	-	-
6465	-	Comso, Inc.	-	-
6466	-	Esquema Inc	-	-
6467	-	Salt Creek Grille	-	-
6468	-	Rey Azteca Restaurant	-	-
6469	-	Ye Old King's Head, Inc.	-	-
6470	-	Asure Software, Inc.	-	-
6471	-	Tactel Us, Inc.	-	-
6472	-	Prospx, Inc.	-	-
6473	-	Orion Healthcare Technology, Inc.	-	-
6474	-	Kippu Japanese Restaurant	-	-
6475	-	Mountain Maids	-	-
6476	-	Rationalsoft, Inc.	-	-
6477	-	Apg Intel, Llc	-	-
6478	-	Shadishiva Inc.	-	-
6479	-	Vast Communications Llc	-	-
6480	-	Litle & Co., Llc	-	-
6481	-	Human Resource Profile, Inc.	-	-
6482	-	Tasty Goody Upland Inc.	-	-
6483	-	Nexus Is, Inc.	-	-
6484	-	Lm Group Inc.	-	-
6485	-	Saz Computer, Inc.	-	-
6486	-	Provista Software International Inc.	-	-
6487	-	Netmasterclass, Llc	-	-
6488	-	Woody's Books Inc.	-	-
6489	-	Manta Media, Inc.	-	-
6490	-	Quomation Insurance Services, Inc.	-	-
6491	-	50cubes Inc	-	-
6492	-	Ricky Asian Bistro Corp.	-	-
6493	-	Bca Technologies, Inc.	-	-
6494	-	Commscope Inc. Of North Carolina. 	-	-
6495	-	Good Day Cafe	-	-
6496	-	Rdm Camps, Llc	-	-
6497	-	Gemini Systems, Llc	-	-
6498	-	Springs Food Service	-	-
6499	-	Vitadex Inc Dba Questaweb Inc	-	-
6500	-	Inx, Inc.	-	-
6501	-	Nvelo, Inc.	-	-
6502	-	Bella Mia Restaurant Inc. A/K/A Dervish	-	-
6503	-	Erei	-	-
6504	-	Rocc Aventura Llc	-	-
6505	-	Verasa Management Llc	-	-
6506	-	United Way Of Southeast Louisiana	-	-
6507	-	Insys Consulting Inc.	-	-
6508	-	Silverlake Ramen	-	-
6509	-	Jasper Wireless, Inc.	-	-
6510	-	Cerrito Colorado, Inc.	-	-
6511	-	Paj 2002 Corp. Dba 9 Tastes	-	-
6512	-	Continuity Helath Solutions Llc	-	-
6513	-	Acentia Llc	-	-
6514	-	Sushi Nara	-	-
6515	-	Metropcs Texas, Llc	-	-
6516	-	November Enterprises, Inc.	-	-
6517	-	Sanpulse Technologies	-	-
6518	-	Sdl Tridion, Inc.	-	-
6519	-	Sabel Systems Technology Solutions, Llc	-	-
6520	-	Stefanini Techteam, Inc.	-	-
6521	-	Accurate Softwares International, Inc	-	-
6522	-	Kii Services Inc	-	-
6523	-	Iscs, Inc.	-	-
6524	-	New China Express	-	-
6525	-	Bear Code Llc	-	-
6526	-	Aasoftech, Inc.	-	-
6527	-	Amind Services Inc.	-	-
6528	-	Meru Networks Inc	-	-
6529	-	Chow Time 2, Llc	-	-
6530	-	Prithvi Catalytic Inc	-	-
6531	-	Navaja Pictures, Inc.	-	-
6532	-	James-Zac Corp.,	-	-
6533	-	Psi Metals North America Inc.	-	-
6534	-	Autonomy, Inc.	-	-
6535	-	Lee's Dragon Inc	-	-
6536	-	Mediakite Corp.	-	-
6537	-	National Security Industries And Services	-	-
6538	-	Network Equipment Technologies, Inc.	-	-
6539	-	Alltour Of America, Inc.	-	-
6540	-	Mycroft, Inc.	-	-
6541	-	Hadapt, Inc.	-	-
6542	-	H.R. Select Consultants, Inc	-	-
6543	-	Gl Trade Americas Inc.	-	-
6544	-	Vb Hospitality Llc	-	-
6545	-	New China, Inc.	-	-
6546	-	Corelink Administrative Solutions Llc	-	-
6547	-	Nes Associates Llc	-	-
6548	-	Global Cms Inc	-	-
6549	-	Celerity It Of Nj, Llc	-	-
6550	-	Blackapple Solutions Llc	-	-
6551	-	S&V Amplify Systems, Llc	-	-
6552	-	212 Pizzeria Corp D/B/A Sofia's Pizza Restaurant	-	-
6553	-	K & W Guan Investment Inc.	-	-
6554	-	Interactive Information R&D Llc D/B/A I2rd	-	-
6555	-	Weblinc Llc	-	-
6556	-	Symphonyiri Group, Inc.	-	-
6557	-	Abyss Group, Inc.	-	-
6558	-	Exacq Technologies, Inc.	-	-
6559	-	Rock Hill Hospitality, Inc.	-	-
6560	-	The Red Cat	-	-
6561	-	Veris Consulting, Inc.	-	-
6562	-	Unique Communications Solutions	-	-
6563	-	Medialab Ventures Llc	-	-
6564	-	Kongkrua Corporation Dba: Thai Basil Restaurant	-	-
6565	-	Arcadyan Technology North America Corp.	-	-
6566	-	Axis Technical Group, Inc.	-	-
6567	-	Medio Systems Inc	-	-
6568	-	Myenersave Inc. Dba Bidgely Inc.	-	-
6569	-	Primatics Financial, Llc	-	-
6570	-	Q Data Usa, Inc	-	-
6571	-	Ymax Communications Corporation	-	-
6572	-	Beta Soft Systems, Inc.	-	-
6573	-	Projectx Usa, Inc.	-	-
6574	-	Red Ripe Corp /Dba Le Petit Restraurant	-	-
6575	-	Core Business Technologies	-	-
6576	-	The Laxmi Group Inc.	-	-
6577	-	Soho New York Lodging Llc	-	-
6578	-	Actscom Usa, Inc.	-	-
6579	-	Sylvina's Travel Services, Inc.	-	-
6580	-	J & J Sushiyaki Corporation	-	-
6581	-	Scopus Consulting Group Inc.	-	-
6582	-	Ik Solutions Inc	-	-
6583	-	Bay Bridge Decision Technologies, Inc.	-	-
6584	-	Adcap Network Systems	-	-
6585	-	Rev Solutions, Inc.	-	-
6586	-	Predictix, Llc	-	-
6587	-	Orchid Infosystems, Inc.	-	-
6588	-	Cmk Food, Llc	-	-
6589	-	J.P.D.L. Enterprises, Inc. D/B/A Market Coffee Sh	-	-
6590	-	Ravello Solutions, Llc	-	-
6591	-	A Thinking Ape Inc.	-	-
6592	-	Misha Consulting Group, Inc.	-	-
6593	-	Loyalty Methods, Inc.	-	-
6594	-	Shogun Buffet And Hibachi Grill Of Asheville, Inc.	-	-
6595	-	Professional Software Associates, Inc.	-	-
6596	-	Salesmetrix, Inc.	-	-
6597	-	Microtech Services, Llc	-	-
6598	-	Condortech Services, Inc.	-	-
6599	-	Odesk Corporation	-	-
6600	-	Mekon Software Llc	-	-
6601	-	Virtual Construction, Inc.	-	-
6602	-	Ignite Media Solutions, Llc	-	-
6603	-	Meraki, Inc.	-	-
6604	-	Kisco Enterprises, Inc. Dba Mt. Kisco Japanese Restaurant	-	-
6605	-	Micros Systems, Inc.	-	-
6606	-	Technotec, Inc.	-	-
6607	-	Aspera, Inc.	-	-
6608	-	The Grey Lake, Inc. Dba Metro 53	-	-
6609	-	Northbound Llc	-	-
6610	-	Digital Nervous Systems	-	-
6611	-	Esrg	-	-
6612	-	K&C Technology Corporation	-	-
6613	-	Flushing Grand Hotel, Inc	-	-
6614	-	Incoda Corporation	-	-
6615	-	Applied Bpo, Llc	-	-
6616	-	Tiziana Jackson	-	-
6617	-	America's Digital Security Inc.	-	-
6618	-	Nanosemantics Inc	-	-
6619	-	Premier Food Concepts, Llc	-	-
6620	-	Enty's Inc.	-	-
6621	-	Malo Consulting Nj, Inc.	-	-
6622	-	Case Consulting Group, Inc.	-	-
6623	-	S.G.M.G.	-	-
6624	-	Paymaster Technology Corporation	-	-
6625	-	Ease, Inc	-	-
6626	-	Millionaire Llc	-	-
6627	-	New Nagoya Inc,(Dba Nagoya Japanese Restaurant)	-	-
6628	-	Sqlcorp	-	-
6629	-	Seamless Technologies, Inc.	-	-
6630	-	Bthree Solutions, Inc.	-	-
6631	-	Baggio Ltd., D/B/A	-	-
6632	-	Jsky Solution Inc.	-	-
6633	-	Bertrand's At Mr. A's	-	-
6634	-	Pasha, Inc.	-	-
6635	-	Datamatics Inc	-	-
6636	-	Helpful Technologies, Inc	-	-
6637	-	Remedy Informatics, Inc.	-	-
6638	-	Golden J's Pizza Llc	-	-
6639	-	San Giovanni	-	-
6640	-	Brainfuse, Inc.	-	-
6641	-	Bahpco, Inc.	-	-
6642	-	Mango Health, Inc.	-	-
6643	-	Gis Solutions Inc.	-	-
6644	-	Rezult Group	-	-
6645	-	561 Media	-	-
6646	-	Applied Process Solutions, Inc.	-	-
6647	-	Orense Spain Inc. D/B/A Sevilla Spain Restaurant	-	-
6648	-	520 Happy Times, Inc. D/B/A Houndstooth Pub	-	-
6649	-	Sungard Investment Systems Llc	-	-
6650	-	Cegedim, Inc.	-	-
6651	-	Pscu Financial Services	-	-
6652	-	Venarc, Inc.	-	-
6653	-	Attributor Corporation	-	-
6654	-	Oneid Inc.	-	-
6655	-	Health Care Dataworks	-	-
6656	-	Alliance Global Services Llc	-	-
6657	-	Aurigma, Inc.	-	-
6658	-	World Discount Telecommunications Co. Inc.	-	-
6659	-	Centersoft, Inc	-	-
6660	-	Image Stream Medical, Inc.	-	-
6661	-	Nzm Restaurant Corp	-	-
6662	-	Kwong's Restaurant, Inc. Dba Chinn's Restaurant	-	-
6663	-	Us Merchant Systems Llc	-	-
6664	-	Rosko Holdings D/B/A Song	-	-
6665	-	Amalgam Technologies Inc	-	-
6666	-	A&F, Inc. Dba Subway 1636	-	-
6667	-	Incentone	-	-
6668	-	Corvil Inc.	-	-
6669	-	Pt Mex Llc Dba Caracara Mexican Grill	-	-
6670	-	Geminiitlabs Inc	-	-
6671	-	Eucalyptus Systems, Inc.	-	-
6672	-	Global Food Services Llc	-	-
6673	-	Sumall, Inc.	-	-
6674	-	Corporacion Sidif Del Caribe	-	-
6675	-	Portal Solutions	-	-
6676	-	Condusiv Technologies Corporation	-	-
6677	-	Coolnet, Llc	-	-
6678	-	Marlborough Software Development Holdings, Inc.	-	-
6679	-	Ibiza, Inc.	-	-
6680	-	E Jo Salt Lake Restaurant Llc	-	-
6681	-	Activecubes Solutions India Private Limited	-	-
6682	-	Research Systems, Inc Dba Itt Vis	-	-
6683	-	Business & Technology Integration, Inc.	-	-
6684	-	Dynamic Software Solutions Inc	-	-
6685	-	Dhingana, Inc.	-	-
6686	-	Distributrd Information Technolgy, Inc.	-	-
6687	-	Gse Systems, Inc.	-	-
6688	-	Choice Solutions Inc	-	-
6689	-	3sg Corporation	-	-
6690	-	Galmay Corporation	-	-
6691	-	Good Stuff	-	-
6692	-	333 Fish Tacos Ny 1, Llc	-	-
6693	-	Apex Consultancy Services Inc	-	-
6694	-	Pointsource, Llc	-	-
6695	-	Starlight Magnex Corporation, Dba Kushi Shabu	-	-
6696	-	3d Infotech	-	-
6697	-	Entrypoint Consulting, Llc	-	-
6698	-	Emdat, Inc.	-	-
6699	-	Data Intensity, Inc.	-	-
6700	-	Frank's Pizza	-	-
6701	-	Saigram Technologies, Inc.	-	-
6702	-	3rdl Corporation	-	-
6703	-	Commscope Inc. Of North Carolina.	-	-
6704	-	955 Dreams, Inc.	-	-
6705	-	Playdom, Inc., Part Of The Walt Disney Company	-	-
6706	-	Payoda Inc.	-	-
6707	-	Star Protection Agency Llc	-	-
6708	-	La Finca Cinco Iii, Inc.	-	-
6709	-	Umit International Trading Llc	-	-
6710	-	Typesafe, Inc.	-	-
6711	-	Tiburon, Inc.	-	-
6712	-	Unleaded Software Inc.	-	-
6713	-	Ninja Inc	-	-
6714	-	Margherita's Pizzeria & Cafe	-	-
6715	-	Ark Technology Solutions Llc	-	-
6716	-	Qbase, Llc	-	-
6717	-	Systech Integrators Inc.	-	-
6718	-	Thai Group Incorporated	-	-
6719	-	420 East 59th Rest. Llc	-	-
6720	-	Telkite Services, Inc.	-	-
6721	-	Cheela Corporation	-	-
6722	-	Metro Entertainment Inc	-	-
6723	-	Tantus Technologies, Inc.	-	-
6724	-	Productspace Solutions Inc.	-	-
6725	-	Lascom Solutions	-	-
6726	-	Ockham Development Group, Inc.	-	-
6727	-	Sark Technology Llc	-	-
6728	-	Firetide, Inc.	-	-
6729	-	Jj Su And Family Inc.	-	-
6730	-	Eshaan V Limited Liability Company	-	-
6731	-	Primestream Corporation	-	-
6732	-	Brentwood Subway Inc,	-	-
6733	-	Automated Vision, Llc	-	-
6734	-	Bridge-X Technologies, Inc.	-	-
6735	-	Bruno-Ristorante Italiano	-	-
6736	-	Ganlaon Corporation	-	-
6737	-	Rock'N Fish	-	-
6738	-	Wissen Inc	-	-
6739	-	B2c Industries Inc.	-	-
6740	-	Incalus, Inc.	-	-
6741	-	Red 5 Studios, Inc.	-	-
6742	-	Atv Food Mart, Inc. D/B/A Five Star Banquet & Rest	-	-
6743	-	Sood & Herrick Investments Ltd	-	-
6744	-	Kpr Systems, Inc.	-	-
6745	-	Qinetiq North America, Inc.	-	-
6746	-	Jang Mo Ziep, Inc.Dba, Jang Mo Ziep	-	-
6747	-	Mips Technologies, Inc.	-	-
6748	-	Robson Specialty Inc.	-	-
6749	-	Mutual Computer Consulting, Inc.	-	-
6750	-	Saveology.Com	-	-
6751	-	Innovations Technology, Inc.	-	-
6752	-	Prolexic Technologies, Inc.	-	-
6753	-	Radiology Information Systems, Inc.	-	-
6754	-	Nippon Travel Agency Micronesia, Inc.	-	-
6755	-	Crm Technology Inc.	-	-
6756	-	Raven Industries, Inc.	-	-
6757	-	Akibia, Inc.	-	-
6758	-	Abk Ventures, Llc	-	-
6759	-	Nisha Llc	-	-
6760	-	Bbc Venture Llc	-	-
6761	-	Taxware, Llc	-	-
6762	-	Exablox Corporation	-	-
6763	-	Rikyu Llc	-	-
6764	-	Abmn-Batesville, Inc.	-	-
6765	-	Sparkart Group Inc.	-	-
6766	-	Attask, Inc.	-	-
6767	-	Think Big Analytics, Inc.	-	-
6768	-	Navitrust Inc	-	-
6769	-	Onyx Graphics, Inc.	-	-
6770	-	Rattan Inc. D/B/A Tamarind Restaurant	-	-
6771	-	Miseno Pizza, Inc.	-	-
6772	-	Itekvision Inc.	-	-
6773	-	Accelerated Technology Laboratories, Inc.	-	-
6774	-	Namaste Cuisine Of India And Nepal	-	-
6775	-	Softlayer Technologies, Inc.	-	-
6776	-	Jung & Young, Inc. Dba Man Doo Rang Restaurant	-	-
6777	-	Platon Communications Corp.	-	-
6778	-	Twinstrata, Inc.	-	-
6779	-	Narus, Inc.	-	-
6780	-	Power Assure, Inc.	-	-
6781	-	Uth Colony Properties, Inc.	-	-
6782	-	Valex, Llc	-	-
6783	-	Mak Technologies	-	-
6784	-	Full Line Tin Restaurant. Inc.	-	-
6785	-	Colonels Limited, Llc	-	-
6786	-	Hughes Telematics, Inc.	-	-
6787	-	Zanett Commercial Solutions, Inc.	-	-
6788	-	Bondib Hotels, Inc., Dba, The Poughkeepsie Grand Hotel	-	-
6789	-	Zek, Inc.	-	-
6790	-	Vasko Inc	-	-
6791	-	Obika Usa, Llc	-	-
6792	-	Ident-A-Kid Services Of America, Inc.	-	-
6793	-	Scott Enterprises, Inc.	-	-
6794	-	Dorado Software, Inc.	-	-
6795	-	Guru Kirpa, Inc. Dba Taste Of India	-	-
6796	-	Profit Velocity Solutions, Llc	-	-
6797	-	Advertical Llc Dba Cando.Com	-	-
6798	-	Bluenog Corporation	-	-
6799	-	Surf Shack Interactive	-	-
6800	-	Factorum Inc	-	-
6801	-	Wholesome Choice Market Inc.,	-	-
6802	-	Bncs Inc	-	-
6803	-	Raima Inc.	-	-
6804	-	Susan Batson Studio Llc	-	-
6805	-	Sk Shiso Llc	-	-
6806	-	Four Seasons Agency Of Hawaii, Inc.	-	-
6807	-	Netzero, Inc. (A United Online, Inc. Company)	-	-
6808	-	Effone Software Inc.	-	-
6809	-	Applabs, Inc.	-	-
6810	-	Solid Silicon Technology, Llc Dba Aragio Solutions	-	-
6811	-	Health Guru Media Inc.	-	-
6812	-	Ecvision Inc.	-	-
6813	-	Somang Enterprise, Inc. (D/B/A Bentto)	-	-
6814	-	Soundbite Communications, Inc.	-	-
6815	-	Mindshare Technologies, Inc.	-	-
6816	-	Sunstorm Games, Llc	-	-
6817	-	Mercury And Earth, Llc.	-	-
6818	-	Dong H. Shin Enterprises, Inc.; Dba So Kong Dong T	-	-
6819	-	Power Tools, Inc. Dba Axceler	-	-
6820	-	Rise Inc.	-	-
6821	-	Jay Kay Food Corp	-	-
6822	-	Dimora Ristorante, Inc.	-	-
6823	-	Dotcloud, Inc.	-	-
6824	-	The Alpenhof Lodge Associates	-	-
6825	-	Depierelli Llc. Dba Route 66	-	-
6826	-	E C Group Inc.T/A Kokeeri	-	-
6827	-	Concepts Info Tech, Llc	-	-
6828	-	Websense, Inc.	-	-
6829	-	Jaspersoft Corporation	-	-
6830	-	Serene Corporation	-	-
6831	-	Solution It	-	-
6832	-	Idwteam Llc	-	-
6833	-	Jays Gourmet	-	-
6834	-	Delfosse Nguyen Associates Llc	-	-
6835	-	Maptext, Inc.	-	-
6836	-	Atex Inc.	-	-
6837	-	Blague Communications	-	-
6838	-	Cegedim Strategic Data Usa Llc	-	-
6839	-	Triumvir, Llc	-	-
6840	-	Chopsticks Chinese Restaurant Corp	-	-
6841	-	Ita Wms Corporation	-	-
6842	-	Jun Lee	-	-
6843	-	Rfp Depot Llc	-	-
6844	-	Inceptron Group Inc	-	-
6845	-	E5 Systems Inc.	-	-
6846	-	Isirona, Llc	-	-
6847	-	Guide By Cell	-	-
6848	-	Craft Llc Dba Craft Bar	-	-
6849	-	Xponential, Inc. Dba Eli Kirk	-	-
6850	-	Ag Employer Advantage, Inc.	-	-
6851	-	Indie, Inc.	-	-
6852	-	Mr. Chow Enterprises Ltd	-	-
6853	-	Mm Napa, Llc.	-	-
6854	-	Maptek	-	-
6855	-	Pavan Hospitality Llc	-	-
6856	-	Tate & Willis Inc. Dba Gulf Breeze Software Partne	-	-
6857	-	Reunify Llc	-	-
6858	-	Seedac, Llc	-	-
6859	-	Optimum I T Soultions Inc.	-	-
6860	-	New Media Worx, Inc.	-	-
6861	-	Lumedx Corporation	-	-
6862	-	Optimos International Llc	-	-
6863	-	M.C. Restaurant Corp.	-	-
6864	-	Room 77, Inc.	-	-
6865	-	Core Projects & Technologies Ltd.	-	-
6866	-	D.B. Systems Corporation	-	-
6867	-	Plunet, Inc.	-	-
6868	-	Atea Technologies Llc.	-	-
6869	-	Not Your Average Joe's, Inc.	-	-
6870	-	Prism Microsystems, Inc.	-	-
6871	-	Baja Bar And Grill	-	-
6872	-	Paciolan, Inc.	-	-
6873	-	Superior Information Technologies Llc	-	-
6874	-	De La Fontaine Llc	-	-
6875	-	Internet Telephone Provider Inc.	-	-
6876	-	Zienon Llc	-	-
6877	-	Anika Hospitality Inc	-	-
6878	-	Tight Lines, Inc. Dba Spumoni	-	-
6879	-	Official Payments Holdings, Inc.	-	-
6880	-	Response Computer Group, Inc.	-	-
6881	-	Creative Computing Inc.	-	-
6882	-	Shiki Group, Inc.	-	-
6883	-	Netboss Technologies, Inc.	-	-
6884	-	Arandas Inc.	-	-
6885	-	Spear Management Company	-	-
6886	-	Notable Solutions, Inc.	-	-
6887	-	Mangostine, Inc.	-	-
6888	-	Opera Software Americas Llc	-	-
6889	-	Screamline Investment Corp. Dba Tourcoach Charter	-	-
6890	-	Pairpoint Goup, Inc.	-	-
6891	-	Cyril Moore, Inc	-	-
6892	-	Burek,Llc	-	-
6893	-	Host Hotels & Resorts	-	-
6894	-	Gia Sai Corp., Dba Da' Pasquale	-	-
6895	-	Innopath Software	-	-
6896	-	Mk Foods Llc	-	-
6897	-	Technosecure Corporation	-	-
6898	-	Shri Maruti Soham Inc	-	-
6899	-	Arch Fellow Llc	-	-
6900	-	Nortec Communications, Inc.	-	-
6901	-	Last K.O., Llc	-	-
6902	-	Bigmachines, Inc.	-	-
6903	-	Jide Software, Inc.	-	-
6904	-	Myeong Enterprises, Inc	-	-
6905	-	Cti Network Group Llc	-	-
6906	-	Healthfusion, Inc.	-	-
6907	-	Desi Village Restaurant, Inc	-	-
6908	-	Duffy Associates Inc. D/B/A Ctr Systems Parking In	-	-
6909	-	Universal Realm Enterprises Inc	-	-
6910	-	Tidemark Systems Inc.	-	-
6911	-	Bigham Cable Const. Inc.	-	-
6912	-	Triandron Diners, Inc.	-	-
6913	-	Netcom Learning Inc-Ny	-	-
6914	-	Intrepidus Group, Inc.	-	-
6915	-	The Dupage Club, Llc	-	-
6916	-	Drumbeat Digital, Llc Dba Heartbeat Ideas	-	-
6917	-	Thm Consultants, Inc. Dba Sai Technology	-	-
6918	-	Computers Guru Inc.	-	-
6919	-	Medhelp International, Inc.	-	-
6920	-	Parature, Inc.	-	-
6921	-	Delcam Usa	-	-
6922	-	Apurva Tech, Inc.	-	-
6923	-	Network Deployment Specialists, Inc. Dba Ami	-	-
6924	-	Tensilica, Inc	-	-
6925	-	Albertos Mexican Food Of Hurricane Llc	-	-
6926	-	Aladiz Llc	-	-
6927	-	Kaba Benzing America, Inc	-	-
6928	-	Edge Of Reality Ltd	-	-
6929	-	Telophase Corporation	-	-
6930	-	Advansoft Inc.	-	-
6931	-	Flour + Water	-	-
6932	-	Aurora Systems Group, Inc.	-	-
6933	-	Peoplenet Incorporated	-	-
6934	-	449 Restaurant, Inc. Dba Moonstruck On Third Restaurant	-	-
6935	-	Restaurant Investment At Doral Llc	-	-
6936	-	L'Orma - Dba Kyma Lounge	-	-
6937	-	Realtick Llc	-	-
6938	-	Smj & Kobe Grill, Inc.	-	-
6939	-	Systemguru, Inc.	-	-
6940	-	Sungard Eprocess Intelligence Llc	-	-
6941	-	Jwon Llc (Dba) Sushi Station	-	-
6942	-	Lumeris, Inc.	-	-
6943	-	Mavrick Software And Telecom Services, Inc.	-	-
6944	-	Netxar Technologies, Inc.	-	-
6945	-	Pan Pan Express, Inc.	-	-
6946	-	Ozelmas Corp	-	-
6947	-	Ramsell Holding Corporation	-	-
6948	-	Credibility Assessment Technologies, Llc	-	-
6949	-	Sanritz America, Inc.	-	-
6950	-	Mj Saleh, Llc Dba Native New Yorker	-	-
6951	-	Pizza Patron, Inc.	-	-
6952	-	Di-Chan	-	-
6953	-	Sun Global Technologies, Inc	-	-
6954	-	Edl Consulting Ltd.	-	-
6955	-	Mach One Technologies, Inc	-	-
6956	-	Tm Generation Inc.	-	-
6957	-	Power Telecomm, Inc.	-	-
6958	-	Common Wells Corporation	-	-
6959	-	Customer Support Services, Inc.	-	-
6960	-	Insors Integrated Communications, Inc.	-	-
6961	-	Troux Technologies, Inc.	-	-
6962	-	Ssdh Dba En Fuego Restaurant	-	-
6963	-	Am Restaurant Group D/B/A Pesce Pasta Restaurant	-	-
6964	-	Doon Technologies, Inc.	-	-
6965	-	Callsource	-	-
6966	-	6555 Sugarloaf Parkway Operations Llc	-	-
6967	-	Sal's Ristorante Italiano	-	-
6968	-	Media Systems Integration, Llc	-	-
6969	-	Om Computer Services Llc	-	-
6970	-	Candela Network Llc	-	-
6971	-	Qi Will Inc.	-	-
6972	-	Bytemanagers, Inc.	-	-
6973	-	United Information Services, Inc.	-	-
6974	-	Nippon Sushi, Inc.	-	-
6975	-	Marri's Pizza Italian Restaurant	-	-
6976	-	G Street Foods, Inc.	-	-
6977	-	Web4, Inc.	-	-
6978	-	Yusen Travel (Usa), Inc.	-	-
6979	-	Global Workforce Partners Inc	-	-
6980	-	K And Y Investment Llc	-	-
6981	-	Gs Dallas Lp	-	-
6982	-	La Cosecha, Inc.	-	-
6983	-	Super 8 Motel	-	-
6984	-	Sg Interactive, Inc.	-	-
6985	-	Branford Holiday Llc	-	-
6986	-	Zenverge, Inc.	-	-
6987	-	Titan Technology Partners	-	-
6988	-	Gannaway Web Holdings Llc D/B/A Worldnow	-	-
6989	-	Rearden Commerce, Inc.	-	-
6990	-	U&X Group, Inc.	-	-
6991	-	Anchcomm Inc.	-	-
6992	-	Saran Indian Cuisine	-	-
6993	-	Wild Rose Food And Spirit Co	-	-
6994	-	Tioga Valley Inc	-	-
6995	-	3v Solutions Llc	-	-
6996	-	Proser Corporation	-	-
6997	-	Yoon Lincoln Towers, Inc.	-	-
6998	-	Iny, Inc.	-	-
6999	-	Peking Five, Inc.	-	-
7000	-	The Software Construction Company	-	-
7001	-	Sgc Investment, Inc. Dba One Sushi & Grill	-	-
7002	-	Cheshire Information Technology Group	-	-
7003	-	Unitedleos Inc.	-	-
7004	-	E&I Specialty	-	-
7005	-	Summit Systems, Inc. (D/B/A/ Misys Banking System	-	-
7006	-	Compass Labs, Inc.	-	-
7007	-	Netchemia, Llc	-	-
7008	-	Specialists In Custom Software	-	-
7009	-	Livevol, Inc.	-	-
7010	-	Gannett Media Technologies International	-	-
7011	-	Tri Color Inc T/A Harley's Irish Pub	-	-
7012	-	Edgecast Networks, Inc.	-	-
7013	-	Unedollar Consulting Services	-	-
7014	-	Helios And Matheson Analytics Inc	-	-
7015	-	Katribu Hayward, Inc.	-	-
7016	-	Cedarcrestone, Inc.	-	-
7017	-	Ilio Enterprises, Llc	-	-
7018	-	Linestream Technologies	-	-
7019	-	Itworqs Llc	-	-
7020	-	Certified Vendor Inc	-	-
7021	-	Longi Engineering, P.C.	-	-
7022	-	Glasshouse Technologies, Inc.	-	-
7023	-	Baynote, Inc.	-	-
7024	-	7hills-It.Com, Inc.	-	-
7025	-	Minnesota Consulting Solutions, Llc	-	-
7026	-	Ramtron International Corporation	-	-
7027	-	Industrybuilt Software Ltd.	-	-
7028	-	Tellus Solutions Inc.	-	-
7029	-	Supportsoft,Inc	-	-
7030	-	May's Ku E Ba Inc.	-	-
7031	-	Swiss Corner, Inc. D/B/A Saltwater Cafe	-	-
7032	-	Infinitt North America Inc.	-	-
7033	-	Hotel Nikko Guam	-	-
7034	-	Ann's Putmanlake Rv Park And Campground Inc.	-	-
7035	-	Chef Sake Restaurant And Sushi Bar	-	-
7036	-	Techenzyme Inc	-	-
7037	-	Tribeca Baked Foods Corp. D.B.A. Gee Whiz Diner	-	-
7038	-	Apriso Corporation	-	-
7039	-	Propose#101inc	-	-
7040	-	Actel Corporation	-	-
7041	-	Usablenet Inc	-	-
7042	-	Sage Assurity Financial, Inc.	-	-
7043	-	Takee International Inc.	-	-
7044	-	Nissin Travel Service (U.S.A.), Inc.	-	-
7045	-	Piccolo Nido Inc.	-	-
7046	-	Craftsteak Nyc, Llc Dba Colicchio & Sons	-	-
7047	-	Dburns Design Corp.	-	-
7048	-	Selectica Inc.	-	-
7049	-	Zeropong International Trading Llc	-	-
7050	-	Scarsdale Catering Corporation	-	-
7051	-	Keane, Inc.	-	-
7052	-	Green Infosystems Llc	-	-
7053	-	Cerrato's Inc.	-	-
7054	-	Collabera Solutions Private Limited	-	-
7055	-	Queen Of Sheba Restaurant	-	-
7056	-	Nagoya Japanese Steak & Seafood, Inc.	-	-
7057	-	Mandarin Ying Inc	-	-
7058	-	Pacifica Systems Integration Group	-	-
7059	-	Little Szechuan Restaurant	-	-
7060	-	Welldoc Communications Inc	-	-
7061	-	Rs Computer Associates, Llc	-	-
7062	-	Pmc-Sierra Us, Inc.	-	-
7063	-	Casa Ranchero	-	-
7064	-	All Over Import And Export, Inc.	-	-
7065	-	All Vacations Of The Americas, Inc.	-	-
7066	-	Rhino Fire Protection Engineering, Pllc	-	-
7067	-	Elandia Technologies, Inc.	-	-
7068	-	Quiline Software Solutions Inc	-	-
7069	-	Helga's Caterers	-	-
7070	-	Donnelly Restaurant Associates, Inc.	-	-
7071	-	Rhapsody Solutions, Llc.	-	-
7072	-	United Domains, Inc	-	-
7073	-	Bluewater Communications Group Llc	-	-
7074	-	Saas Software Inc	-	-
7075	-	Appsense Inc.	-	-
7076	-	State Plaza Hotel, Inc	-	-
7077	-	Citagus Software Usa Incorporated	-	-
7078	-	C3, Llc	-	-
7079	-	Diverse Computer Corporation	-	-
7080	-	Paydiant, Inc.	-	-
7081	-	Insightsone Systems	-	-
7082	-	Dass Internatonal, Inc.	-	-
7083	-	Milner Technologies, Inc. Fna Comsquared Systems,	-	-
7084	-	Causata, Inc.	-	-
7085	-	Esolutions Integrated Inc.	-	-
7086	-	Eighteen Tigers, Inc	-	-
7087	-	Interstate Business Equipment, Inc.	-	-
7088	-	Djgk, Inc. Dba: Mannarang Food Court	-	-
7089	-	Ricoh Production Print Solutions	-	-
7090	-	Byo Co Usa Ltd	-	-
7091	-	Innovative Network Solutions, Inc	-	-
7092	-	Carrier Iq, Inc.	-	-
7093	-	99runs Inc.	-	-
7094	-	The Hdf Group, Inc.	-	-
7095	-	Mercury Data Systems, Inc.	-	-
7096	-	Defoor & Morgana, Inc.	-	-
7097	-	Worklight Inc	-	-
7098	-	Apolent Corporation	-	-
7099	-	Core Associates, Llc	-	-
7100	-	Luigi's Restaurant	-	-
7101	-	Novaglobe, Inc.	-	-
7102	-	Amr Technology, Inc.	-	-
7103	-	Ginza 2 Llc	-	-
7104	-	Classic Restaurant Partners Lp Dba Savona	-	-
7105	-	Altek Computer Group	-	-
7106	-	Globalvise Inc	-	-
7107	-	Cosmo Computer Inc.	-	-
7108	-	Yumi To Go 1, Llc	-	-
7109	-	Hotel Systemspro	-	-
7110	-	Pangea Solutions Inc.	-	-
7111	-	Upstairs On The Square	-	-
7112	-	Takamatsu On Dunlap, Inc	-	-
7113	-	Hostway	-	-
7114	-	Editshare	-	-
7115	-	Retail Technologies	-	-
7116	-	United Will Kyoto Usa Inc	-	-
7117	-	4d Security Solutions, Inc.	-	-
7118	-	Tropos Networks, Inc.	-	-
7119	-	Stamford Hospitality Lp	-	-
7120	-	Centralert, Inc.	-	-
7121	-	Fusionsis Inc	-	-
7122	-	Livefyre, Inc.	-	-
7123	-	Netdna, Llc	-	-
7124	-	Veselka Enterprises, Ltd	-	-
7125	-	T C N, Inc.	-	-
7126	-	Nbr Ranch Holdings	-	-
7127	-	New Kang Suh, Inc	-	-
7128	-	Miracle Technologies Inc.	-	-
7129	-	Koraku Restaurant	-	-
7130	-	Entrepidus Llc	-	-
7131	-	Columbia Hospitality, Inc.	-	-
7132	-	Ravh-It, Inc.	-	-
7133	-	Vburst Software Llc	-	-
7134	-	Sushi N I	-	-
7135	-	Good Enough To Eat Uptown, Ltd.	-	-
7136	-	Cvidya Networks, Inc.	-	-
7137	-	Particle Inc	-	-
7138	-	Khrg Serrano Llc	-	-
7139	-	Legal Discovery Llc	-	-
7140	-	Actionable Intelligence Technologies Inc	-	-
7141	-	Jasper Design Automation, Inc.	-	-
7142	-	Gemini Systems Worldwide	-	-
7143	-	Codepartners Llc	-	-
7144	-	Lucky Dragon Investment Inc.	-	-
7145	-	Er & Ag Inc. Dba: Giwa Korean Restaurant	-	-
7146	-	Birch Communications	-	-
7147	-	House Of Kobe, Inc.	-	-
7148	-	Beacon Application Services Corp.	-	-
7149	-	Lazzari Corp.	-	-
7150	-	Philip Todd Llc	-	-
7151	-	Energov Solutions	-	-
7152	-	Lantell Systems, Llc	-	-
7153	-	Qcera Inc	-	-
7154	-	Sungard Vpm, Inc.	-	-
7155	-	Navel Technologies Inc	-	-
7156	-	Iplogic, Incorporated	-	-
7157	-	522 W. 38th St. Ny Llc	-	-
7158	-	Softek International, Inc.	-	-
7159	-	Yousendit, Inc.	-	-
7160	-	Don Pepi Deli, Inc.	-	-
7161	-	Miracle Tv Corporation	-	-
7162	-	Madres Restaurant, Llc	-	-
7163	-	Gfi Usa, Inc.	-	-
7164	-	Global Gourmet, Inc.	-	-
7165	-	Interwoven, Inc.	-	-
7166	-	Russian National Group, Inc	-	-
7167	-	Gnip, Inc.	-	-
7168	-	Enable Healthcare Inc.	-	-
7169	-	Limeleap Inc.	-	-
7170	-	Ortiva Wireless	-	-
7171	-	Red Oak Technologies, Inc.	-	-
7172	-	Bella Pasta	-	-
7173	-	Logicblox	-	-
7174	-	Wavemarket, Inc.	-	-
7175	-	Arecat Restauraunt Corp.	-	-
7176	-	Carma Cinco Llc	-	-
7177	-	Gse Envision Llc	-	-
7178	-	Calmtel Usa Inc	-	-
7179	-	Global Computer Associates	-	-
7180	-	Junction Solutions	-	-
7181	-	Vsg Acquisition Corporation	-	-
7182	-	Tunesat Llc	-	-
7183	-	Jag Guru Inc. Dba Hampton Inn	-	-
7184	-	Nrg-Edge, Llc	-	-
7185	-	American Casino & Entertainment Properties, Llc	-	-
7186	-	Kno, Inc.	-	-
7187	-	Diamond Management And Technology Consultants, Inc	-	-
7188	-	Med-Plus, Inc.	-	-
7189	-	Impiger Technologies Inc.	-	-
7190	-	Salt & Light Of Sk Llc	-	-
7191	-	Broadlight, Inc	-	-
7192	-	Foliage, Inc.	-	-
7193	-	Mblox Inc.	-	-
7194	-	Technolyst, Inc.	-	-
7195	-	Half Moon Junction, Inc. D/B/A The Full Moon Cafe	-	-
7196	-	Mashon, Inc.	-	-
7197	-	E-Freight Technology, Inc.	-	-
7198	-	Coverity, Inc.	-	-
7199	-	Frontrange Solutions Usa Inc.	-	-
7200	-	Videointegrators Export Co.	-	-
7201	-	South American Restaurants Corp	-	-
7202	-	Osaka Sushi Restaurant	-	-
7203	-	Lmmm Houston #47, Ltd.	-	-
7204	-	J&R Restaurant Corp	-	-
7205	-	Katy's Dumpling House	-	-
7206	-	Pho Ha	-	-
7207	-	Exxim Computing Corporation	-	-
7208	-	Tomax Corporation	-	-
7209	-	Ticketmob Llc	-	-
7210	-	Omniscient Systems, Inc.	-	-
7211	-	Best One Restaurant, Inc.	-	-
7212	-	Call Inc	-	-
7213	-	Crazy Sushi Inc	-	-
7214	-	Fig & Olive Thirteen Street Llc	-	-
7215	-	Quasars,Inc	-	-
7216	-	Step Up Systems Group Llc	-	-
7217	-	Fah Sai Llc	-	-
7218	-	Aicent, Inc.	-	-
7219	-	Prospect Associates, Llc.	-	-
7220	-	Sriak Technologies Inc.	-	-
7221	-	Taqueria El Ranchito Number Two, Inc.	-	-
7222	-	Ecologic Analytics, Llc	-	-
7223	-	Epocrates, Inc., An Athenahealth Company	-	-
7224	-	Ds Soft Tech, Inc	-	-
7225	-	Tcb Advisors Llc	-	-
7226	-	Saimtek Inc	-	-
7227	-	Pace Systems, Inc.	-	-
7228	-	Angelina's Restaurant	-	-
7229	-	Uptap, Inc.	-	-
7230	-	Hd Dimension Corp.	-	-
7231	-	Knowledgepath Solutions Inc	-	-
7232	-	Positano Las Vegas, Llc Dba: Postrio	-	-
7233	-	Northstarplaza Management Llc	-	-
7234	-	Network Expert Group, Inc.	-	-
7235	-	Vello Systems, Inc. (Fka Ov Networks, Inc.)	-	-
7236	-	Hillstone Restaurant Group, Inc. Dba R & D Kitchen	-	-
7237	-	J2 Consulting, Inc. Information Assurance Professi	-	-
7238	-	Vegan Cuisine, Inc.	-	-
7239	-	T-Force, Inc.	-	-
7240	-	Genophen, Inc.	-	-
7241	-	Infinata, Inc.	-	-
7242	-	Nj Sushi Corporation	-	-
7243	-	Mezzacappa Management, Llc	-	-
7244	-	Datalinx Corporation	-	-
7245	-	Clay Oven	-	-
7246	-	Cvision Technologies	-	-
7247	-	Morishita Enterprises	-	-
7248	-	Connectedu, Inc.	-	-
7249	-	Chesapeake System Solutions, Inc.	-	-
7250	-	Onpoint Health Data	-	-
7251	-	Mbsc, Inc. Dba Hatam Restaurant # 2	-	-
7252	-	Corevantage Technologies Llc	-	-
7253	-	Tpr Consulting Llc	-	-
7254	-	Microapex Computer Systems, Inc.	-	-
7255	-	Cafe Y Canela Colombian Restaurant	-	-
7256	-	Customcd, Inc.	-	-
7257	-	Bellevue Enterprises Dba Marcello's Pizza	-	-
7258	-	The Fred Rogers Company	-	-
7259	-	Lapha & Company America, Inc.	-	-
7260	-	Cheshire Ymca	-	-
7261	-	Fat Donkey, Inc.	-	-
7262	-	Gb Advisors, Inc	-	-
7263	-	The American Churrascaria, Inc.	-	-
7264	-	Informatics Corporation Of America	-	-
7265	-	Airtrade International Inc	-	-
7266	-	Dcm Group, Inc.	-	-
7267	-	Minute Menu Systems Llc	-	-
7268	-	Simer Sp Inc. D/B/A Subway	-	-
7269	-	Adminworks, Inc.	-	-
7270	-	Cibb Associates, Llc D/B/A Bogarts	-	-
7271	-	Nexti Solutions	-	-
7272	-	Shri Nijanand Llc	-	-
7273	-	Saito Steak House, Inc.	-	-
7274	-	Addy, Inc.	-	-
7275	-	Tandoor Of India	-	-
7276	-	Chuan-Liang, Inc. D/B/A Golden Buddha Restaurant	-	-
7277	-	Graspa Consulting, Inc.	-	-
7278	-	Thinkstream, Incorporated	-	-
7279	-	Cloudeeva, Inc	-	-
7280	-	Netcordant, Inc.	-	-
7281	-	R's Americantina	-	-
7282	-	Avyci Solutions Llc	-	-
7283	-	Professional Staffing Solutions, Llc - Dba Ps Solutions	-	-
7284	-	Exigis, Llc	-	-
7285	-	Tcy Llc	-	-
7286	-	Adept Technology, Inc.	-	-
7287	-	Diversified Technology Solutions International,Inc	-	-
7288	-	Integratech Llc	-	-
7289	-	Frs America Inc.	-	-
7290	-	Mtw Solutions, Llc	-	-
7291	-	Cg Jersey, Inc. D.B.A. Fratello's Restaurant	-	-
7292	-	Atem Corp	-	-
7293	-	Kristek Inc.	-	-
7294	-	Jaques, Ltd.	-	-
7295	-	Time Link International Corp.	-	-
7296	-	1618labs, Inc. Dba Urban Engines	-	-
7297	-	Pps Plus Software	-	-
7298	-	Peripheral Computer Support, Inc.	-	-
7299	-	Re-Pete Inc.	-	-
7300	-	Star Labs Ltd.	-	-
7301	-	Santa Rita Investments, Inc	-	-
7302	-	Tona, Inc.	-	-
7303	-	Invision, Inc.	-	-
7304	-	Tabula, Inc.	-	-
7305	-	Tolly Testing, Llc	-	-
7306	-	Tara Thai Of Bethesda	-	-
7307	-	Sierra Systems, Inc.	-	-
7308	-	Universolutions, Llc	-	-
7309	-	Kalvin Consulting, Inc.	-	-
7310	-	Peninsula Production Company	-	-
7311	-	Halosys Technologies Inc	-	-
7312	-	Yu One Inc	-	-
7313	-	Betis Group, Inc.	-	-
7314	-	Trevor & Treasa Inc	-	-
7315	-	Visual Retail Plus Inc.	-	-
7316	-	Gallina, Inc.	-	-
7317	-	Trattoria Tiramisu	-	-
7318	-	Ku-Washington Corporation T/A Sichuan Pavilion	-	-
7319	-	Litescape Technologies, Inc.	-	-
7320	-	Reahum Sources Inc.	-	-
7321	-	Vahalla (Dba: Wakamono)	-	-
7322	-	Manny's Preakness Restaurant Inc Dba Manny's Preakness Restaurant	-	-
7323	-	Todo 1 Services, In.C	-	-
7324	-	Ignify, Inc.	-	-
7325	-	Raj & Raj Realty Ltd.	-	-
7326	-	Logistics Health Incorporated	-	-
7327	-	Investor Analytics, Llc	-	-
7328	-	Paganini, Inc.	-	-
7329	-	Seaspace Corporation	-	-
7330	-	Info E Web Inc	-	-
7331	-	Satpath Systems, Inc.	-	-
7332	-	Key Systems Consulting, Inc.	-	-
7333	-	Language Weaver, Inc.	-	-
7334	-	Kinesix Corporation	-	-
7335	-	As Software Inc	-	-
7336	-	Zircorn Technologies Inc	-	-
7337	-	Blue Pearl Virginia, Inc.	-	-
7338	-	Enterprise Solutions Technology Group, Inc.	-	-
7339	-	Cambridgesoft, Corp.	-	-
7340	-	Dhira Middle Office Solutions Llc	-	-
7341	-	Sweet Temptations U.S.A., Inc.	-	-
7342	-	58 East Colorado Corporation	-	-
7343	-	Denco Enterprises, Inc.	-	-
7344	-	Dabo Health Inc.	-	-
7345	-	Solera Corporation	-	-
7346	-	Quad Nova, Incorporated	-	-
7347	-	Diffusion Group Llc Dba Meltmedia	-	-
7348	-	River Road Pizza, Inc. T/A Ledo Pizza	-	-
7349	-	Exactbid, Inc.	-	-
7350	-	Los Portales	-	-
7351	-	Metratech Corporation	-	-
7352	-	Cdi Technology Corp.	-	-
7353	-	The Round Hearth At Stowe, Llc	-	-
7354	-	Automated License Systems, Inc.	-	-
7355	-	Wonderful Dragon, Inc. Dba Wonderful Dragon	-	-
7356	-	Ranch Catering, Inc.	-	-
7357	-	Cas Severn, Inc.	-	-
7358	-	U. S. Info Systems Inc	-	-
7359	-	Connectsolutions Inc.	-	-
7360	-	Kals Corporation	-	-
7361	-	Rizzuto Management Group, Inc.	-	-
7362	-	Darya Restaurant	-	-
7363	-	Gruntworx Llc	-	-
7364	-	Edaptive Systems, Llc	-	-
7365	-	Vensi, Inc.	-	-
7366	-	Salt Pond, Inc	-	-
7367	-	Alphasoft Services Corporation	-	-
7368	-	Application Corporation	-	-
7369	-	Abis Technologies Inc	-	-
7370	-	Education Systems, Inc.	-	-
7371	-	Merge Healthcare Solutions, Inc.	-	-
7372	-	Vacation Technologies International Inc.	-	-
7373	-	Dj Sushi, Inc.	-	-
7374	-	Atomic Software, Inc.	-	-
7375	-	Szechuan Restaurant	-	-
7376	-	Food Play Corp., Dba Basix Cafe	-	-
7377	-	Aplifi, Inc.	-	-
7378	-	Deque Systems, Inc.	-	-
7379	-	J2 Innovative Concepts, Inc.	-	-
7380	-	Exeter Group, Inc.	-	-
7381	-	A1 Fire & Security Llc	-	-
7382	-	The Medigroup, Ltd.	-	-
7383	-	French Woods Management	-	-
7384	-	New China Mandarin Restaurant	-	-
7385	-	Zeninfotech Llc	-	-
7386	-	Jinwoo 580	-	-
7387	-	Hokuto International, Inc.	-	-
7388	-	Tekcenture, Inc.	-	-
7389	-	Orc Usa Inc.	-	-
7390	-	Mattersight Corporation	-	-
7391	-	The Shelby Group	-	-
7392	-	Glympse	-	-
7393	-	Hisoft Envisage, Inc.	-	-
7394	-	Digia Usa, Inc.	-	-
7395	-	Fry, Inc.	-	-
7396	-	Sushi Town Restaurant, Inc. Dba Sushi Dake	-	-
7397	-	Jane On Main Inc Dba Shagwong Tavern	-	-
7398	-	Sang Hun Shin	-	-
7399	-	Matrix Management Systems, Inc.	-	-
7400	-	Verifications, Inc.	-	-
 
New Jobs | Green Card | H1B Visa | Student Visa | Work Visa | Immigration Attorney | About Us | Contact Us | FAQ | Visa Reports 

Copyright  2006 - 2020